ARM GAS  C:\Users\Mark\AppData\Local\Temp\ccMUWMIC.s 			page 1


   1              		.syntax unified
   2              		.cpu cortex-m3
   3              		.fpu softvfp
   4              		.eabi_attribute 20, 1
   5              		.eabi_attribute 21, 1
   6              		.eabi_attribute 23, 3
   7              		.eabi_attribute 24, 1
   8              		.eabi_attribute 25, 1
   9              		.eabi_attribute 26, 1
  10              		.eabi_attribute 30, 6
  11              		.eabi_attribute 34, 1
  12              		.eabi_attribute 18, 4
  13              		.thumb
  14              		.file	"DEBUG_UART.c"
  15              		.text
  16              	.Ltext0:
  17              		.cfi_sections	.debug_frame
  18              		.global	DEBUG_UART_initVar
  19              		.bss
  20              		.type	DEBUG_UART_initVar, %object
  21              		.size	DEBUG_UART_initVar, 1
  22              	DEBUG_UART_initVar:
  23 0000 00       		.space	1
  24              		.section	.text.DEBUG_UART_Start,"ax",%progbits
  25              		.align	2
  26              		.global	DEBUG_UART_Start
  27              		.thumb
  28              		.thumb_func
  29              		.type	DEBUG_UART_Start, %function
  30              	DEBUG_UART_Start:
  31              	.LFB0:
  32              		.file 1 ".\\Generated_Source\\PSoC5\\DEBUG_UART.c"
   1:.\Generated_Source\PSoC5/DEBUG_UART.c **** /*******************************************************************************
   2:.\Generated_Source\PSoC5/DEBUG_UART.c **** * File Name: DEBUG_UART.c
   3:.\Generated_Source\PSoC5/DEBUG_UART.c **** * Version 2.30
   4:.\Generated_Source\PSoC5/DEBUG_UART.c **** *
   5:.\Generated_Source\PSoC5/DEBUG_UART.c **** * Description:
   6:.\Generated_Source\PSoC5/DEBUG_UART.c **** *  This file provides all API functionality of the UART component
   7:.\Generated_Source\PSoC5/DEBUG_UART.c **** *
   8:.\Generated_Source\PSoC5/DEBUG_UART.c **** * Note:
   9:.\Generated_Source\PSoC5/DEBUG_UART.c **** *
  10:.\Generated_Source\PSoC5/DEBUG_UART.c **** ********************************************************************************
  11:.\Generated_Source\PSoC5/DEBUG_UART.c **** * Copyright 2008-2012, Cypress Semiconductor Corporation.  All rights reserved.
  12:.\Generated_Source\PSoC5/DEBUG_UART.c **** * You may use this file only in accordance with the license, terms, conditions,
  13:.\Generated_Source\PSoC5/DEBUG_UART.c **** * disclaimers, and limitations in the end user license agreement accompanying
  14:.\Generated_Source\PSoC5/DEBUG_UART.c **** * the software package with which this file was provided.
  15:.\Generated_Source\PSoC5/DEBUG_UART.c **** *******************************************************************************/
  16:.\Generated_Source\PSoC5/DEBUG_UART.c **** 
  17:.\Generated_Source\PSoC5/DEBUG_UART.c **** #include "DEBUG_UART.h"
  18:.\Generated_Source\PSoC5/DEBUG_UART.c **** #include "CyLib.h"
  19:.\Generated_Source\PSoC5/DEBUG_UART.c **** #if(DEBUG_UART_INTERNAL_CLOCK_USED)
  20:.\Generated_Source\PSoC5/DEBUG_UART.c ****     #include "DEBUG_UART_IntClock.h"
  21:.\Generated_Source\PSoC5/DEBUG_UART.c **** #endif /* End DEBUG_UART_INTERNAL_CLOCK_USED */
  22:.\Generated_Source\PSoC5/DEBUG_UART.c **** 
  23:.\Generated_Source\PSoC5/DEBUG_UART.c **** 
  24:.\Generated_Source\PSoC5/DEBUG_UART.c **** /***************************************
  25:.\Generated_Source\PSoC5/DEBUG_UART.c **** * Global data allocation
ARM GAS  C:\Users\Mark\AppData\Local\Temp\ccMUWMIC.s 			page 2


  26:.\Generated_Source\PSoC5/DEBUG_UART.c **** ***************************************/
  27:.\Generated_Source\PSoC5/DEBUG_UART.c **** 
  28:.\Generated_Source\PSoC5/DEBUG_UART.c **** uint8 DEBUG_UART_initVar = 0u;
  29:.\Generated_Source\PSoC5/DEBUG_UART.c **** #if( DEBUG_UART_TX_ENABLED && (DEBUG_UART_TXBUFFERSIZE > DEBUG_UART_FIFO_LENGTH))
  30:.\Generated_Source\PSoC5/DEBUG_UART.c ****     volatile uint8 DEBUG_UART_txBuffer[DEBUG_UART_TXBUFFERSIZE];
  31:.\Generated_Source\PSoC5/DEBUG_UART.c ****     volatile uint8 DEBUG_UART_txBufferRead = 0u;
  32:.\Generated_Source\PSoC5/DEBUG_UART.c ****     uint8 DEBUG_UART_txBufferWrite = 0u;
  33:.\Generated_Source\PSoC5/DEBUG_UART.c **** #endif /* End DEBUG_UART_TX_ENABLED */
  34:.\Generated_Source\PSoC5/DEBUG_UART.c **** #if( ( DEBUG_UART_RX_ENABLED || DEBUG_UART_HD_ENABLED ) && \
  35:.\Generated_Source\PSoC5/DEBUG_UART.c ****      (DEBUG_UART_RXBUFFERSIZE > DEBUG_UART_FIFO_LENGTH) )
  36:.\Generated_Source\PSoC5/DEBUG_UART.c ****     volatile uint8 DEBUG_UART_rxBuffer[DEBUG_UART_RXBUFFERSIZE];
  37:.\Generated_Source\PSoC5/DEBUG_UART.c ****     volatile uint8 DEBUG_UART_rxBufferRead = 0u;
  38:.\Generated_Source\PSoC5/DEBUG_UART.c ****     volatile uint8 DEBUG_UART_rxBufferWrite = 0u;
  39:.\Generated_Source\PSoC5/DEBUG_UART.c ****     volatile uint8 DEBUG_UART_rxBufferLoopDetect = 0u;
  40:.\Generated_Source\PSoC5/DEBUG_UART.c ****     volatile uint8 DEBUG_UART_rxBufferOverflow = 0u;
  41:.\Generated_Source\PSoC5/DEBUG_UART.c ****     #if (DEBUG_UART_RXHW_ADDRESS_ENABLED)
  42:.\Generated_Source\PSoC5/DEBUG_UART.c ****         volatile uint8 DEBUG_UART_rxAddressMode = DEBUG_UART_RXADDRESSMODE;
  43:.\Generated_Source\PSoC5/DEBUG_UART.c ****         volatile uint8 DEBUG_UART_rxAddressDetected = 0u;
  44:.\Generated_Source\PSoC5/DEBUG_UART.c ****     #endif /* End EnableHWAddress */
  45:.\Generated_Source\PSoC5/DEBUG_UART.c **** #endif /* End DEBUG_UART_RX_ENABLED */
  46:.\Generated_Source\PSoC5/DEBUG_UART.c **** 
  47:.\Generated_Source\PSoC5/DEBUG_UART.c **** 
  48:.\Generated_Source\PSoC5/DEBUG_UART.c **** /*******************************************************************************
  49:.\Generated_Source\PSoC5/DEBUG_UART.c **** * Function Name: DEBUG_UART_Start
  50:.\Generated_Source\PSoC5/DEBUG_UART.c **** ********************************************************************************
  51:.\Generated_Source\PSoC5/DEBUG_UART.c **** *
  52:.\Generated_Source\PSoC5/DEBUG_UART.c **** * Summary:
  53:.\Generated_Source\PSoC5/DEBUG_UART.c **** *  Initialize and Enable the UART component.
  54:.\Generated_Source\PSoC5/DEBUG_UART.c **** *  Enable the clock input to enable operation.
  55:.\Generated_Source\PSoC5/DEBUG_UART.c **** *
  56:.\Generated_Source\PSoC5/DEBUG_UART.c **** * Parameters:
  57:.\Generated_Source\PSoC5/DEBUG_UART.c **** *  None.
  58:.\Generated_Source\PSoC5/DEBUG_UART.c **** *
  59:.\Generated_Source\PSoC5/DEBUG_UART.c **** * Return:
  60:.\Generated_Source\PSoC5/DEBUG_UART.c **** *  None.
  61:.\Generated_Source\PSoC5/DEBUG_UART.c **** *
  62:.\Generated_Source\PSoC5/DEBUG_UART.c **** * Global variables:
  63:.\Generated_Source\PSoC5/DEBUG_UART.c **** *  The DEBUG_UART_intiVar variable is used to indicate initial
  64:.\Generated_Source\PSoC5/DEBUG_UART.c **** *  configuration of this component. The variable is initialized to zero (0u)
  65:.\Generated_Source\PSoC5/DEBUG_UART.c **** *  and set to one (1u) the first time UART_Start() is called. This allows for
  66:.\Generated_Source\PSoC5/DEBUG_UART.c **** *  component initialization without re-initialization in all subsequent calls
  67:.\Generated_Source\PSoC5/DEBUG_UART.c **** *  to the DEBUG_UART_Start() routine.
  68:.\Generated_Source\PSoC5/DEBUG_UART.c **** *
  69:.\Generated_Source\PSoC5/DEBUG_UART.c **** * Reentrant:
  70:.\Generated_Source\PSoC5/DEBUG_UART.c **** *  No.
  71:.\Generated_Source\PSoC5/DEBUG_UART.c **** *
  72:.\Generated_Source\PSoC5/DEBUG_UART.c **** *******************************************************************************/
  73:.\Generated_Source\PSoC5/DEBUG_UART.c **** void DEBUG_UART_Start(void) 
  74:.\Generated_Source\PSoC5/DEBUG_UART.c **** {
  33              		.loc 1 74 0
  34              		.cfi_startproc
  35              		@ args = 0, pretend = 0, frame = 0
  36              		@ frame_needed = 1, uses_anonymous_args = 0
  37 0000 80B5     		push	{r7, lr}
  38              	.LCFI0:
  39              		.cfi_def_cfa_offset 8
  40              		.cfi_offset 7, -8
ARM GAS  C:\Users\Mark\AppData\Local\Temp\ccMUWMIC.s 			page 3


  41              		.cfi_offset 14, -4
  42 0002 00AF     		add	r7, sp, #0
  43              	.LCFI1:
  44              		.cfi_def_cfa_register 7
  75:.\Generated_Source\PSoC5/DEBUG_UART.c ****     /* If not Initialized then initialize all required hardware and software */
  76:.\Generated_Source\PSoC5/DEBUG_UART.c ****     if(DEBUG_UART_initVar == 0u)
  45              		.loc 1 76 0
  46 0004 40F20003 		movw	r3, #:lower16:DEBUG_UART_initVar
  47 0008 C0F20003 		movt	r3, #:upper16:DEBUG_UART_initVar
  48 000c 1B78     		ldrb	r3, [r3, #0]	@ zero_extendqisi2
  49 000e 002B     		cmp	r3, #0
  50 0010 08D1     		bne	.L2
  77:.\Generated_Source\PSoC5/DEBUG_UART.c ****     {
  78:.\Generated_Source\PSoC5/DEBUG_UART.c ****         DEBUG_UART_Init();
  51              		.loc 1 78 0
  52 0012 FFF7FEFF 		bl	DEBUG_UART_Init
  79:.\Generated_Source\PSoC5/DEBUG_UART.c ****         DEBUG_UART_initVar = 1u;
  53              		.loc 1 79 0
  54 0016 40F20003 		movw	r3, #:lower16:DEBUG_UART_initVar
  55 001a C0F20003 		movt	r3, #:upper16:DEBUG_UART_initVar
  56 001e 4FF00102 		mov	r2, #1
  57 0022 1A70     		strb	r2, [r3, #0]
  58              	.L2:
  80:.\Generated_Source\PSoC5/DEBUG_UART.c ****     }
  81:.\Generated_Source\PSoC5/DEBUG_UART.c ****     DEBUG_UART_Enable();
  59              		.loc 1 81 0
  60 0024 FFF7FEFF 		bl	DEBUG_UART_Enable
  82:.\Generated_Source\PSoC5/DEBUG_UART.c **** }
  61              		.loc 1 82 0
  62 0028 80BD     		pop	{r7, pc}
  63              		.cfi_endproc
  64              	.LFE0:
  65              		.size	DEBUG_UART_Start, .-DEBUG_UART_Start
  66 002a 00BF     		.section	.text.DEBUG_UART_Init,"ax",%progbits
  67              		.align	2
  68              		.global	DEBUG_UART_Init
  69              		.thumb
  70              		.thumb_func
  71              		.type	DEBUG_UART_Init, %function
  72              	DEBUG_UART_Init:
  73              	.LFB1:
  83:.\Generated_Source\PSoC5/DEBUG_UART.c **** 
  84:.\Generated_Source\PSoC5/DEBUG_UART.c **** 
  85:.\Generated_Source\PSoC5/DEBUG_UART.c **** /*******************************************************************************
  86:.\Generated_Source\PSoC5/DEBUG_UART.c **** * Function Name: DEBUG_UART_Init
  87:.\Generated_Source\PSoC5/DEBUG_UART.c **** ********************************************************************************
  88:.\Generated_Source\PSoC5/DEBUG_UART.c **** *
  89:.\Generated_Source\PSoC5/DEBUG_UART.c **** * Summary:
  90:.\Generated_Source\PSoC5/DEBUG_UART.c **** *  Initialize component's parameters to the parameters set by user in the
  91:.\Generated_Source\PSoC5/DEBUG_UART.c **** *  customizer of the component placed onto schematic. Usually called in
  92:.\Generated_Source\PSoC5/DEBUG_UART.c **** *  DEBUG_UART_Start().
  93:.\Generated_Source\PSoC5/DEBUG_UART.c **** *
  94:.\Generated_Source\PSoC5/DEBUG_UART.c **** * Parameters:
  95:.\Generated_Source\PSoC5/DEBUG_UART.c **** *  None.
  96:.\Generated_Source\PSoC5/DEBUG_UART.c **** *
  97:.\Generated_Source\PSoC5/DEBUG_UART.c **** * Return:
  98:.\Generated_Source\PSoC5/DEBUG_UART.c **** *  None.
ARM GAS  C:\Users\Mark\AppData\Local\Temp\ccMUWMIC.s 			page 4


  99:.\Generated_Source\PSoC5/DEBUG_UART.c **** *
 100:.\Generated_Source\PSoC5/DEBUG_UART.c **** *******************************************************************************/
 101:.\Generated_Source\PSoC5/DEBUG_UART.c **** void DEBUG_UART_Init(void) 
 102:.\Generated_Source\PSoC5/DEBUG_UART.c **** {
  74              		.loc 1 102 0
  75              		.cfi_startproc
  76              		@ args = 0, pretend = 0, frame = 0
  77              		@ frame_needed = 1, uses_anonymous_args = 0
  78              		@ link register save eliminated.
  79 0000 80B4     		push	{r7}
  80              	.LCFI2:
  81              		.cfi_def_cfa_offset 4
  82              		.cfi_offset 7, -4
  83 0002 00AF     		add	r7, sp, #0
  84              	.LCFI3:
  85              		.cfi_def_cfa_register 7
 103:.\Generated_Source\PSoC5/DEBUG_UART.c ****     #if(DEBUG_UART_RX_ENABLED || DEBUG_UART_HD_ENABLED)
 104:.\Generated_Source\PSoC5/DEBUG_UART.c **** 
 105:.\Generated_Source\PSoC5/DEBUG_UART.c ****         #if(DEBUG_UART_RX_INTERRUPT_ENABLED && (DEBUG_UART_RXBUFFERSIZE > DEBUG_UART_FIFO_LENGTH))
 106:.\Generated_Source\PSoC5/DEBUG_UART.c ****             /* Set the RX Interrupt. */
 107:.\Generated_Source\PSoC5/DEBUG_UART.c ****             (void)CyIntSetVector(DEBUG_UART_RX_VECT_NUM, &DEBUG_UART_RXISR);
 108:.\Generated_Source\PSoC5/DEBUG_UART.c ****             CyIntSetPriority(DEBUG_UART_RX_VECT_NUM, DEBUG_UART_RX_PRIOR_NUM);
 109:.\Generated_Source\PSoC5/DEBUG_UART.c ****         #endif /* End DEBUG_UART_RX_INTERRUPT_ENABLED */
 110:.\Generated_Source\PSoC5/DEBUG_UART.c **** 
 111:.\Generated_Source\PSoC5/DEBUG_UART.c ****         #if (DEBUG_UART_RXHW_ADDRESS_ENABLED)
 112:.\Generated_Source\PSoC5/DEBUG_UART.c ****             DEBUG_UART_SetRxAddressMode(DEBUG_UART_RXAddressMode);
 113:.\Generated_Source\PSoC5/DEBUG_UART.c ****             DEBUG_UART_SetRxAddress1(DEBUG_UART_RXHWADDRESS1);
 114:.\Generated_Source\PSoC5/DEBUG_UART.c ****             DEBUG_UART_SetRxAddress2(DEBUG_UART_RXHWADDRESS2);
 115:.\Generated_Source\PSoC5/DEBUG_UART.c ****         #endif /* End DEBUG_UART_RXHW_ADDRESS_ENABLED */
 116:.\Generated_Source\PSoC5/DEBUG_UART.c **** 
 117:.\Generated_Source\PSoC5/DEBUG_UART.c ****         /* Init Count7 period */
 118:.\Generated_Source\PSoC5/DEBUG_UART.c ****         DEBUG_UART_RXBITCTR_PERIOD_REG = DEBUG_UART_RXBITCTR_INIT;
 119:.\Generated_Source\PSoC5/DEBUG_UART.c ****         /* Configure the Initial RX interrupt mask */
 120:.\Generated_Source\PSoC5/DEBUG_UART.c ****         DEBUG_UART_RXSTATUS_MASK_REG  = DEBUG_UART_INIT_RX_INTERRUPTS_MASK;
 121:.\Generated_Source\PSoC5/DEBUG_UART.c ****     #endif /* End DEBUG_UART_RX_ENABLED || DEBUG_UART_HD_ENABLED*/
 122:.\Generated_Source\PSoC5/DEBUG_UART.c **** 
 123:.\Generated_Source\PSoC5/DEBUG_UART.c ****     #if(DEBUG_UART_TX_ENABLED)
 124:.\Generated_Source\PSoC5/DEBUG_UART.c ****         #if(DEBUG_UART_TX_INTERRUPT_ENABLED && (DEBUG_UART_TXBUFFERSIZE > DEBUG_UART_FIFO_LENGTH))
 125:.\Generated_Source\PSoC5/DEBUG_UART.c ****             /* Set the TX Interrupt. */
 126:.\Generated_Source\PSoC5/DEBUG_UART.c ****             (void)CyIntSetVector(DEBUG_UART_TX_VECT_NUM, &DEBUG_UART_TXISR);
 127:.\Generated_Source\PSoC5/DEBUG_UART.c ****             CyIntSetPriority(DEBUG_UART_TX_VECT_NUM, DEBUG_UART_TX_PRIOR_NUM);
 128:.\Generated_Source\PSoC5/DEBUG_UART.c ****         #endif /* End DEBUG_UART_TX_INTERRUPT_ENABLED */
 129:.\Generated_Source\PSoC5/DEBUG_UART.c **** 
 130:.\Generated_Source\PSoC5/DEBUG_UART.c ****         /* Write Counter Value for TX Bit Clk Generator*/
 131:.\Generated_Source\PSoC5/DEBUG_UART.c ****         #if(DEBUG_UART_TXCLKGEN_DP)
 132:.\Generated_Source\PSoC5/DEBUG_UART.c ****             DEBUG_UART_TXBITCLKGEN_CTR_REG = DEBUG_UART_BIT_CENTER;
  86              		.loc 1 132 0
  87 0004 46F22443 		movw	r3, #25636
  88 0008 C4F20003 		movt	r3, 16384
  89 000c 4FF00702 		mov	r2, #7
  90 0010 1A70     		strb	r2, [r3, #0]
 133:.\Generated_Source\PSoC5/DEBUG_UART.c ****             DEBUG_UART_TXBITCLKTX_COMPLETE_REG = (DEBUG_UART_NUMBER_OF_DATA_BITS +
  91              		.loc 1 133 0
  92 0012 46F23443 		movw	r3, #25652
  93 0016 C4F20003 		movt	r3, 16384
  94 001a 4FF04802 		mov	r2, #72
  95 001e 1A70     		strb	r2, [r3, #0]
ARM GAS  C:\Users\Mark\AppData\Local\Temp\ccMUWMIC.s 			page 5


 134:.\Generated_Source\PSoC5/DEBUG_UART.c ****                         DEBUG_UART_NUMBER_OF_START_BIT) * DEBUG_UART_OVER_SAMPLE_COUNT;
 135:.\Generated_Source\PSoC5/DEBUG_UART.c ****         #else
 136:.\Generated_Source\PSoC5/DEBUG_UART.c ****             DEBUG_UART_TXBITCTR_PERIOD_REG = ((DEBUG_UART_NUMBER_OF_DATA_BITS +
 137:.\Generated_Source\PSoC5/DEBUG_UART.c ****                         DEBUG_UART_NUMBER_OF_START_BIT) * DEBUG_UART_OVER_SAMPLE_8) - 1u;
 138:.\Generated_Source\PSoC5/DEBUG_UART.c ****         #endif /* End DEBUG_UART_TXCLKGEN_DP */
 139:.\Generated_Source\PSoC5/DEBUG_UART.c **** 
 140:.\Generated_Source\PSoC5/DEBUG_UART.c ****         /* Configure the Initial TX interrupt mask */
 141:.\Generated_Source\PSoC5/DEBUG_UART.c ****         #if(DEBUG_UART_TX_INTERRUPT_ENABLED && (DEBUG_UART_TXBUFFERSIZE > DEBUG_UART_FIFO_LENGTH))
 142:.\Generated_Source\PSoC5/DEBUG_UART.c ****             DEBUG_UART_TXSTATUS_MASK_REG = DEBUG_UART_TX_STS_FIFO_EMPTY;
 143:.\Generated_Source\PSoC5/DEBUG_UART.c ****         #else
 144:.\Generated_Source\PSoC5/DEBUG_UART.c ****             DEBUG_UART_TXSTATUS_MASK_REG = DEBUG_UART_INIT_TX_INTERRUPTS_MASK;
  96              		.loc 1 144 0
  97 0020 46F28853 		movw	r3, #25992
  98 0024 C4F20003 		movt	r3, 16384
  99 0028 4FF00002 		mov	r2, #0
 100 002c 1A70     		strb	r2, [r3, #0]
 145:.\Generated_Source\PSoC5/DEBUG_UART.c ****         #endif /*End DEBUG_UART_TX_INTERRUPT_ENABLED*/
 146:.\Generated_Source\PSoC5/DEBUG_UART.c **** 
 147:.\Generated_Source\PSoC5/DEBUG_UART.c ****     #endif /* End DEBUG_UART_TX_ENABLED */
 148:.\Generated_Source\PSoC5/DEBUG_UART.c **** 
 149:.\Generated_Source\PSoC5/DEBUG_UART.c ****     #if(DEBUG_UART_PARITY_TYPE_SW)  /* Write Parity to Control Register */
 150:.\Generated_Source\PSoC5/DEBUG_UART.c ****         DEBUG_UART_WriteControlRegister( \
 151:.\Generated_Source\PSoC5/DEBUG_UART.c ****             (DEBUG_UART_ReadControlRegister() & (uint8)~DEBUG_UART_CTRL_PARITY_TYPE_MASK) | \
 152:.\Generated_Source\PSoC5/DEBUG_UART.c ****             (uint8)(DEBUG_UART_PARITY_TYPE << DEBUG_UART_CTRL_PARITY_TYPE0_SHIFT) );
 153:.\Generated_Source\PSoC5/DEBUG_UART.c ****     #endif /* End DEBUG_UART_PARITY_TYPE_SW */
 154:.\Generated_Source\PSoC5/DEBUG_UART.c **** }
 101              		.loc 1 154 0
 102 002e BD46     		mov	sp, r7
 103 0030 80BC     		pop	{r7}
 104 0032 7047     		bx	lr
 105              		.cfi_endproc
 106              	.LFE1:
 107              		.size	DEBUG_UART_Init, .-DEBUG_UART_Init
 108              		.section	.text.DEBUG_UART_Enable,"ax",%progbits
 109              		.align	2
 110              		.global	DEBUG_UART_Enable
 111              		.thumb
 112              		.thumb_func
 113              		.type	DEBUG_UART_Enable, %function
 114              	DEBUG_UART_Enable:
 115              	.LFB2:
 155:.\Generated_Source\PSoC5/DEBUG_UART.c **** 
 156:.\Generated_Source\PSoC5/DEBUG_UART.c **** 
 157:.\Generated_Source\PSoC5/DEBUG_UART.c **** /*******************************************************************************
 158:.\Generated_Source\PSoC5/DEBUG_UART.c **** * Function Name: DEBUG_UART_Enable
 159:.\Generated_Source\PSoC5/DEBUG_UART.c **** ********************************************************************************
 160:.\Generated_Source\PSoC5/DEBUG_UART.c **** *
 161:.\Generated_Source\PSoC5/DEBUG_UART.c **** * Summary:
 162:.\Generated_Source\PSoC5/DEBUG_UART.c **** *  Enables the UART block operation
 163:.\Generated_Source\PSoC5/DEBUG_UART.c **** *
 164:.\Generated_Source\PSoC5/DEBUG_UART.c **** * Parameters:
 165:.\Generated_Source\PSoC5/DEBUG_UART.c **** *  None.
 166:.\Generated_Source\PSoC5/DEBUG_UART.c **** *
 167:.\Generated_Source\PSoC5/DEBUG_UART.c **** * Return:
 168:.\Generated_Source\PSoC5/DEBUG_UART.c **** *  None.
 169:.\Generated_Source\PSoC5/DEBUG_UART.c **** *
 170:.\Generated_Source\PSoC5/DEBUG_UART.c **** * Global Variables:
ARM GAS  C:\Users\Mark\AppData\Local\Temp\ccMUWMIC.s 			page 6


 171:.\Generated_Source\PSoC5/DEBUG_UART.c **** *  DEBUG_UART_rxAddressDetected - set to initial state (0).
 172:.\Generated_Source\PSoC5/DEBUG_UART.c **** *
 173:.\Generated_Source\PSoC5/DEBUG_UART.c **** *******************************************************************************/
 174:.\Generated_Source\PSoC5/DEBUG_UART.c **** void DEBUG_UART_Enable(void) 
 175:.\Generated_Source\PSoC5/DEBUG_UART.c **** {
 116              		.loc 1 175 0
 117              		.cfi_startproc
 118              		@ args = 0, pretend = 0, frame = 8
 119              		@ frame_needed = 1, uses_anonymous_args = 0
 120 0000 80B5     		push	{r7, lr}
 121              	.LCFI4:
 122              		.cfi_def_cfa_offset 8
 123              		.cfi_offset 7, -8
 124              		.cfi_offset 14, -4
 125 0002 82B0     		sub	sp, sp, #8
 126              	.LCFI5:
 127              		.cfi_def_cfa_offset 16
 128 0004 00AF     		add	r7, sp, #0
 129              	.LCFI6:
 130              		.cfi_def_cfa_register 7
 176:.\Generated_Source\PSoC5/DEBUG_UART.c ****     uint8 enableInterrupts;
 177:.\Generated_Source\PSoC5/DEBUG_UART.c ****     enableInterrupts = CyEnterCriticalSection();
 131              		.loc 1 177 0
 132 0006 FFF7FEFF 		bl	CyEnterCriticalSection
 133 000a 0346     		mov	r3, r0
 134 000c FB71     		strb	r3, [r7, #7]
 178:.\Generated_Source\PSoC5/DEBUG_UART.c **** 
 179:.\Generated_Source\PSoC5/DEBUG_UART.c ****     #if(DEBUG_UART_RX_ENABLED || DEBUG_UART_HD_ENABLED)
 180:.\Generated_Source\PSoC5/DEBUG_UART.c ****         /*RX Counter (Count7) Enable */
 181:.\Generated_Source\PSoC5/DEBUG_UART.c ****         DEBUG_UART_RXBITCTR_CONTROL_REG |= DEBUG_UART_CNTR_ENABLE;
 182:.\Generated_Source\PSoC5/DEBUG_UART.c ****         /* Enable the RX Interrupt. */
 183:.\Generated_Source\PSoC5/DEBUG_UART.c ****         DEBUG_UART_RXSTATUS_ACTL_REG  |= DEBUG_UART_INT_ENABLE;
 184:.\Generated_Source\PSoC5/DEBUG_UART.c ****         #if(DEBUG_UART_RX_INTERRUPT_ENABLED && (DEBUG_UART_RXBUFFERSIZE > DEBUG_UART_FIFO_LENGTH))
 185:.\Generated_Source\PSoC5/DEBUG_UART.c ****             CyIntEnable(DEBUG_UART_RX_VECT_NUM);
 186:.\Generated_Source\PSoC5/DEBUG_UART.c ****             #if (DEBUG_UART_RXHW_ADDRESS_ENABLED)
 187:.\Generated_Source\PSoC5/DEBUG_UART.c ****                 DEBUG_UART_rxAddressDetected = 0u;
 188:.\Generated_Source\PSoC5/DEBUG_UART.c ****             #endif /* End DEBUG_UART_RXHW_ADDRESS_ENABLED */
 189:.\Generated_Source\PSoC5/DEBUG_UART.c ****         #endif /* End DEBUG_UART_RX_INTERRUPT_ENABLED */
 190:.\Generated_Source\PSoC5/DEBUG_UART.c ****     #endif /* End DEBUG_UART_RX_ENABLED || DEBUG_UART_HD_ENABLED*/
 191:.\Generated_Source\PSoC5/DEBUG_UART.c **** 
 192:.\Generated_Source\PSoC5/DEBUG_UART.c ****     #if(DEBUG_UART_TX_ENABLED)
 193:.\Generated_Source\PSoC5/DEBUG_UART.c ****         /*TX Counter (DP/Count7) Enable */
 194:.\Generated_Source\PSoC5/DEBUG_UART.c ****         #if(!DEBUG_UART_TXCLKGEN_DP)
 195:.\Generated_Source\PSoC5/DEBUG_UART.c ****             DEBUG_UART_TXBITCTR_CONTROL_REG |= DEBUG_UART_CNTR_ENABLE;
 196:.\Generated_Source\PSoC5/DEBUG_UART.c ****         #endif /* End DEBUG_UART_TXCLKGEN_DP */
 197:.\Generated_Source\PSoC5/DEBUG_UART.c ****         /* Enable the TX Interrupt. */
 198:.\Generated_Source\PSoC5/DEBUG_UART.c ****         DEBUG_UART_TXSTATUS_ACTL_REG |= DEBUG_UART_INT_ENABLE;
 135              		.loc 1 198 0
 136 000e 46F29853 		movw	r3, #26008
 137 0012 C4F20003 		movt	r3, 16384
 138 0016 46F29852 		movw	r2, #26008
 139 001a C4F20002 		movt	r2, 16384
 140 001e 1278     		ldrb	r2, [r2, #0]
 141 0020 D2B2     		uxtb	r2, r2
 142 0022 42F01002 		orr	r2, r2, #16
 143 0026 D2B2     		uxtb	r2, r2
 144 0028 1A70     		strb	r2, [r3, #0]
ARM GAS  C:\Users\Mark\AppData\Local\Temp\ccMUWMIC.s 			page 7


 199:.\Generated_Source\PSoC5/DEBUG_UART.c ****         #if(DEBUG_UART_TX_INTERRUPT_ENABLED && (DEBUG_UART_TXBUFFERSIZE > DEBUG_UART_FIFO_LENGTH))
 200:.\Generated_Source\PSoC5/DEBUG_UART.c ****             CyIntEnable(DEBUG_UART_TX_VECT_NUM);
 201:.\Generated_Source\PSoC5/DEBUG_UART.c ****         #endif /* End DEBUG_UART_TX_INTERRUPT_ENABLED*/
 202:.\Generated_Source\PSoC5/DEBUG_UART.c ****      #endif /* End DEBUG_UART_TX_ENABLED */
 203:.\Generated_Source\PSoC5/DEBUG_UART.c **** 
 204:.\Generated_Source\PSoC5/DEBUG_UART.c ****     #if(DEBUG_UART_INTERNAL_CLOCK_USED)
 205:.\Generated_Source\PSoC5/DEBUG_UART.c ****         /* Enable the clock. */
 206:.\Generated_Source\PSoC5/DEBUG_UART.c ****         DEBUG_UART_IntClock_Start();
 145              		.loc 1 206 0
 146 002a FFF7FEFF 		bl	DEBUG_UART_IntClock_Start
 207:.\Generated_Source\PSoC5/DEBUG_UART.c ****     #endif /* End DEBUG_UART_INTERNAL_CLOCK_USED */
 208:.\Generated_Source\PSoC5/DEBUG_UART.c **** 
 209:.\Generated_Source\PSoC5/DEBUG_UART.c ****     CyExitCriticalSection(enableInterrupts);
 147              		.loc 1 209 0
 148 002e FB79     		ldrb	r3, [r7, #7]	@ zero_extendqisi2
 149 0030 1846     		mov	r0, r3
 150 0032 FFF7FEFF 		bl	CyExitCriticalSection
 210:.\Generated_Source\PSoC5/DEBUG_UART.c **** }
 151              		.loc 1 210 0
 152 0036 07F10807 		add	r7, r7, #8
 153 003a BD46     		mov	sp, r7
 154 003c 80BD     		pop	{r7, pc}
 155              		.cfi_endproc
 156              	.LFE2:
 157              		.size	DEBUG_UART_Enable, .-DEBUG_UART_Enable
 158 003e 00BF     		.section	.text.DEBUG_UART_Stop,"ax",%progbits
 159              		.align	2
 160              		.global	DEBUG_UART_Stop
 161              		.thumb
 162              		.thumb_func
 163              		.type	DEBUG_UART_Stop, %function
 164              	DEBUG_UART_Stop:
 165              	.LFB3:
 211:.\Generated_Source\PSoC5/DEBUG_UART.c **** 
 212:.\Generated_Source\PSoC5/DEBUG_UART.c **** 
 213:.\Generated_Source\PSoC5/DEBUG_UART.c **** /*******************************************************************************
 214:.\Generated_Source\PSoC5/DEBUG_UART.c **** * Function Name: DEBUG_UART_Stop
 215:.\Generated_Source\PSoC5/DEBUG_UART.c **** ********************************************************************************
 216:.\Generated_Source\PSoC5/DEBUG_UART.c **** *
 217:.\Generated_Source\PSoC5/DEBUG_UART.c **** * Summary:
 218:.\Generated_Source\PSoC5/DEBUG_UART.c **** *  Disable the UART component
 219:.\Generated_Source\PSoC5/DEBUG_UART.c **** *
 220:.\Generated_Source\PSoC5/DEBUG_UART.c **** * Parameters:
 221:.\Generated_Source\PSoC5/DEBUG_UART.c **** *  None.
 222:.\Generated_Source\PSoC5/DEBUG_UART.c **** *
 223:.\Generated_Source\PSoC5/DEBUG_UART.c **** * Return:
 224:.\Generated_Source\PSoC5/DEBUG_UART.c **** *  None.
 225:.\Generated_Source\PSoC5/DEBUG_UART.c **** *
 226:.\Generated_Source\PSoC5/DEBUG_UART.c **** *******************************************************************************/
 227:.\Generated_Source\PSoC5/DEBUG_UART.c **** void DEBUG_UART_Stop(void) 
 228:.\Generated_Source\PSoC5/DEBUG_UART.c **** {
 166              		.loc 1 228 0
 167              		.cfi_startproc
 168              		@ args = 0, pretend = 0, frame = 8
 169              		@ frame_needed = 1, uses_anonymous_args = 0
 170 0000 80B5     		push	{r7, lr}
 171              	.LCFI7:
ARM GAS  C:\Users\Mark\AppData\Local\Temp\ccMUWMIC.s 			page 8


 172              		.cfi_def_cfa_offset 8
 173              		.cfi_offset 7, -8
 174              		.cfi_offset 14, -4
 175 0002 82B0     		sub	sp, sp, #8
 176              	.LCFI8:
 177              		.cfi_def_cfa_offset 16
 178 0004 00AF     		add	r7, sp, #0
 179              	.LCFI9:
 180              		.cfi_def_cfa_register 7
 229:.\Generated_Source\PSoC5/DEBUG_UART.c ****     uint8 enableInterrupts;
 230:.\Generated_Source\PSoC5/DEBUG_UART.c ****     enableInterrupts = CyEnterCriticalSection();
 181              		.loc 1 230 0
 182 0006 FFF7FEFF 		bl	CyEnterCriticalSection
 183 000a 0346     		mov	r3, r0
 184 000c FB71     		strb	r3, [r7, #7]
 231:.\Generated_Source\PSoC5/DEBUG_UART.c **** 
 232:.\Generated_Source\PSoC5/DEBUG_UART.c ****     /* Write Bit Counter Disable */
 233:.\Generated_Source\PSoC5/DEBUG_UART.c ****     #if(DEBUG_UART_RX_ENABLED || DEBUG_UART_HD_ENABLED)
 234:.\Generated_Source\PSoC5/DEBUG_UART.c ****         DEBUG_UART_RXBITCTR_CONTROL_REG &= (uint8)~DEBUG_UART_CNTR_ENABLE;
 235:.\Generated_Source\PSoC5/DEBUG_UART.c ****     #endif /* End DEBUG_UART_RX_ENABLED */
 236:.\Generated_Source\PSoC5/DEBUG_UART.c **** 
 237:.\Generated_Source\PSoC5/DEBUG_UART.c ****     #if(DEBUG_UART_TX_ENABLED)
 238:.\Generated_Source\PSoC5/DEBUG_UART.c ****         #if(!DEBUG_UART_TXCLKGEN_DP)
 239:.\Generated_Source\PSoC5/DEBUG_UART.c ****             DEBUG_UART_TXBITCTR_CONTROL_REG &= (uint8)~DEBUG_UART_CNTR_ENABLE;
 240:.\Generated_Source\PSoC5/DEBUG_UART.c ****         #endif /* End DEBUG_UART_TXCLKGEN_DP */
 241:.\Generated_Source\PSoC5/DEBUG_UART.c ****     #endif /* DEBUG_UART_TX_ENABLED */
 242:.\Generated_Source\PSoC5/DEBUG_UART.c **** 
 243:.\Generated_Source\PSoC5/DEBUG_UART.c ****     #if(DEBUG_UART_INTERNAL_CLOCK_USED)
 244:.\Generated_Source\PSoC5/DEBUG_UART.c ****         /* Disable the clock. */
 245:.\Generated_Source\PSoC5/DEBUG_UART.c ****         DEBUG_UART_IntClock_Stop();
 185              		.loc 1 245 0
 186 000e FFF7FEFF 		bl	DEBUG_UART_IntClock_Stop
 246:.\Generated_Source\PSoC5/DEBUG_UART.c ****     #endif /* End DEBUG_UART_INTERNAL_CLOCK_USED */
 247:.\Generated_Source\PSoC5/DEBUG_UART.c **** 
 248:.\Generated_Source\PSoC5/DEBUG_UART.c ****     /* Disable internal interrupt component */
 249:.\Generated_Source\PSoC5/DEBUG_UART.c ****     #if(DEBUG_UART_RX_ENABLED || DEBUG_UART_HD_ENABLED)
 250:.\Generated_Source\PSoC5/DEBUG_UART.c ****         DEBUG_UART_RXSTATUS_ACTL_REG  &= (uint8)~DEBUG_UART_INT_ENABLE;
 251:.\Generated_Source\PSoC5/DEBUG_UART.c ****         #if(DEBUG_UART_RX_INTERRUPT_ENABLED && (DEBUG_UART_RXBUFFERSIZE > DEBUG_UART_FIFO_LENGTH))
 252:.\Generated_Source\PSoC5/DEBUG_UART.c ****             DEBUG_UART_DisableRxInt();
 253:.\Generated_Source\PSoC5/DEBUG_UART.c ****         #endif /* End DEBUG_UART_RX_INTERRUPT_ENABLED */
 254:.\Generated_Source\PSoC5/DEBUG_UART.c ****     #endif /* End DEBUG_UART_RX_ENABLED */
 255:.\Generated_Source\PSoC5/DEBUG_UART.c **** 
 256:.\Generated_Source\PSoC5/DEBUG_UART.c ****     #if(DEBUG_UART_TX_ENABLED)
 257:.\Generated_Source\PSoC5/DEBUG_UART.c ****         DEBUG_UART_TXSTATUS_ACTL_REG &= (uint8)~DEBUG_UART_INT_ENABLE;
 187              		.loc 1 257 0
 188 0012 46F29853 		movw	r3, #26008
 189 0016 C4F20003 		movt	r3, 16384
 190 001a 46F29852 		movw	r2, #26008
 191 001e C4F20002 		movt	r2, 16384
 192 0022 1278     		ldrb	r2, [r2, #0]
 193 0024 D2B2     		uxtb	r2, r2
 194 0026 22F01002 		bic	r2, r2, #16
 195 002a D2B2     		uxtb	r2, r2
 196 002c 1A70     		strb	r2, [r3, #0]
 258:.\Generated_Source\PSoC5/DEBUG_UART.c ****         #if(DEBUG_UART_TX_INTERRUPT_ENABLED && (DEBUG_UART_TXBUFFERSIZE > DEBUG_UART_FIFO_LENGTH))
 259:.\Generated_Source\PSoC5/DEBUG_UART.c ****             DEBUG_UART_DisableTxInt();
 260:.\Generated_Source\PSoC5/DEBUG_UART.c ****         #endif /* End DEBUG_UART_TX_INTERRUPT_ENABLED */
ARM GAS  C:\Users\Mark\AppData\Local\Temp\ccMUWMIC.s 			page 9


 261:.\Generated_Source\PSoC5/DEBUG_UART.c ****     #endif /* End DEBUG_UART_TX_ENABLED */
 262:.\Generated_Source\PSoC5/DEBUG_UART.c **** 
 263:.\Generated_Source\PSoC5/DEBUG_UART.c ****     CyExitCriticalSection(enableInterrupts);
 197              		.loc 1 263 0
 198 002e FB79     		ldrb	r3, [r7, #7]	@ zero_extendqisi2
 199 0030 1846     		mov	r0, r3
 200 0032 FFF7FEFF 		bl	CyExitCriticalSection
 264:.\Generated_Source\PSoC5/DEBUG_UART.c **** }
 201              		.loc 1 264 0
 202 0036 07F10807 		add	r7, r7, #8
 203 003a BD46     		mov	sp, r7
 204 003c 80BD     		pop	{r7, pc}
 205              		.cfi_endproc
 206              	.LFE3:
 207              		.size	DEBUG_UART_Stop, .-DEBUG_UART_Stop
 208 003e 00BF     		.section	.text.DEBUG_UART_ReadControlRegister,"ax",%progbits
 209              		.align	2
 210              		.global	DEBUG_UART_ReadControlRegister
 211              		.thumb
 212              		.thumb_func
 213              		.type	DEBUG_UART_ReadControlRegister, %function
 214              	DEBUG_UART_ReadControlRegister:
 215              	.LFB4:
 265:.\Generated_Source\PSoC5/DEBUG_UART.c **** 
 266:.\Generated_Source\PSoC5/DEBUG_UART.c **** 
 267:.\Generated_Source\PSoC5/DEBUG_UART.c **** /*******************************************************************************
 268:.\Generated_Source\PSoC5/DEBUG_UART.c **** * Function Name: DEBUG_UART_ReadControlRegister
 269:.\Generated_Source\PSoC5/DEBUG_UART.c **** ********************************************************************************
 270:.\Generated_Source\PSoC5/DEBUG_UART.c **** *
 271:.\Generated_Source\PSoC5/DEBUG_UART.c **** * Summary:
 272:.\Generated_Source\PSoC5/DEBUG_UART.c **** *  Read the current state of the control register
 273:.\Generated_Source\PSoC5/DEBUG_UART.c **** *
 274:.\Generated_Source\PSoC5/DEBUG_UART.c **** * Parameters:
 275:.\Generated_Source\PSoC5/DEBUG_UART.c **** *  None.
 276:.\Generated_Source\PSoC5/DEBUG_UART.c **** *
 277:.\Generated_Source\PSoC5/DEBUG_UART.c **** * Return:
 278:.\Generated_Source\PSoC5/DEBUG_UART.c **** *  Current state of the control register.
 279:.\Generated_Source\PSoC5/DEBUG_UART.c **** *
 280:.\Generated_Source\PSoC5/DEBUG_UART.c **** *******************************************************************************/
 281:.\Generated_Source\PSoC5/DEBUG_UART.c **** uint8 DEBUG_UART_ReadControlRegister(void) 
 282:.\Generated_Source\PSoC5/DEBUG_UART.c **** {
 216              		.loc 1 282 0
 217              		.cfi_startproc
 218              		@ args = 0, pretend = 0, frame = 0
 219              		@ frame_needed = 1, uses_anonymous_args = 0
 220              		@ link register save eliminated.
 221 0000 80B4     		push	{r7}
 222              	.LCFI10:
 223              		.cfi_def_cfa_offset 4
 224              		.cfi_offset 7, -4
 225 0002 00AF     		add	r7, sp, #0
 226              	.LCFI11:
 227              		.cfi_def_cfa_register 7
 283:.\Generated_Source\PSoC5/DEBUG_UART.c ****     #if( DEBUG_UART_CONTROL_REG_REMOVED )
 284:.\Generated_Source\PSoC5/DEBUG_UART.c ****         return(0u);
 228              		.loc 1 284 0
 229 0004 4FF00003 		mov	r3, #0
ARM GAS  C:\Users\Mark\AppData\Local\Temp\ccMUWMIC.s 			page 10


 285:.\Generated_Source\PSoC5/DEBUG_UART.c ****     #else
 286:.\Generated_Source\PSoC5/DEBUG_UART.c ****         return(DEBUG_UART_CONTROL_REG);
 287:.\Generated_Source\PSoC5/DEBUG_UART.c ****     #endif /* End DEBUG_UART_CONTROL_REG_REMOVED */
 288:.\Generated_Source\PSoC5/DEBUG_UART.c **** }
 230              		.loc 1 288 0
 231 0008 1846     		mov	r0, r3
 232 000a BD46     		mov	sp, r7
 233 000c 80BC     		pop	{r7}
 234 000e 7047     		bx	lr
 235              		.cfi_endproc
 236              	.LFE4:
 237              		.size	DEBUG_UART_ReadControlRegister, .-DEBUG_UART_ReadControlRegister
 238              		.section	.text.DEBUG_UART_WriteControlRegister,"ax",%progbits
 239              		.align	2
 240              		.global	DEBUG_UART_WriteControlRegister
 241              		.thumb
 242              		.thumb_func
 243              		.type	DEBUG_UART_WriteControlRegister, %function
 244              	DEBUG_UART_WriteControlRegister:
 245              	.LFB5:
 289:.\Generated_Source\PSoC5/DEBUG_UART.c **** 
 290:.\Generated_Source\PSoC5/DEBUG_UART.c **** 
 291:.\Generated_Source\PSoC5/DEBUG_UART.c **** /*******************************************************************************
 292:.\Generated_Source\PSoC5/DEBUG_UART.c **** * Function Name: DEBUG_UART_WriteControlRegister
 293:.\Generated_Source\PSoC5/DEBUG_UART.c **** ********************************************************************************
 294:.\Generated_Source\PSoC5/DEBUG_UART.c **** *
 295:.\Generated_Source\PSoC5/DEBUG_UART.c **** * Summary:
 296:.\Generated_Source\PSoC5/DEBUG_UART.c **** *  Writes an 8-bit value into the control register
 297:.\Generated_Source\PSoC5/DEBUG_UART.c **** *
 298:.\Generated_Source\PSoC5/DEBUG_UART.c **** * Parameters:
 299:.\Generated_Source\PSoC5/DEBUG_UART.c **** *  control:  control register value
 300:.\Generated_Source\PSoC5/DEBUG_UART.c **** *
 301:.\Generated_Source\PSoC5/DEBUG_UART.c **** * Return:
 302:.\Generated_Source\PSoC5/DEBUG_UART.c **** *  None.
 303:.\Generated_Source\PSoC5/DEBUG_UART.c **** *
 304:.\Generated_Source\PSoC5/DEBUG_UART.c **** *******************************************************************************/
 305:.\Generated_Source\PSoC5/DEBUG_UART.c **** void  DEBUG_UART_WriteControlRegister(uint8 control) 
 306:.\Generated_Source\PSoC5/DEBUG_UART.c **** {
 246              		.loc 1 306 0
 247              		.cfi_startproc
 248              		@ args = 0, pretend = 0, frame = 8
 249              		@ frame_needed = 1, uses_anonymous_args = 0
 250              		@ link register save eliminated.
 251 0000 80B4     		push	{r7}
 252              	.LCFI12:
 253              		.cfi_def_cfa_offset 4
 254              		.cfi_offset 7, -4
 255 0002 83B0     		sub	sp, sp, #12
 256              	.LCFI13:
 257              		.cfi_def_cfa_offset 16
 258 0004 00AF     		add	r7, sp, #0
 259              	.LCFI14:
 260              		.cfi_def_cfa_register 7
 261 0006 0346     		mov	r3, r0
 262 0008 FB71     		strb	r3, [r7, #7]
 307:.\Generated_Source\PSoC5/DEBUG_UART.c ****     #if( DEBUG_UART_CONTROL_REG_REMOVED )
 308:.\Generated_Source\PSoC5/DEBUG_UART.c ****         if(control != 0u) { }      /* release compiler warning */
ARM GAS  C:\Users\Mark\AppData\Local\Temp\ccMUWMIC.s 			page 11


 309:.\Generated_Source\PSoC5/DEBUG_UART.c ****     #else
 310:.\Generated_Source\PSoC5/DEBUG_UART.c ****        DEBUG_UART_CONTROL_REG = control;
 311:.\Generated_Source\PSoC5/DEBUG_UART.c ****     #endif /* End DEBUG_UART_CONTROL_REG_REMOVED */
 312:.\Generated_Source\PSoC5/DEBUG_UART.c **** }
 263              		.loc 1 312 0
 264 000a 07F10C07 		add	r7, r7, #12
 265 000e BD46     		mov	sp, r7
 266 0010 80BC     		pop	{r7}
 267 0012 7047     		bx	lr
 268              		.cfi_endproc
 269              	.LFE5:
 270              		.size	DEBUG_UART_WriteControlRegister, .-DEBUG_UART_WriteControlRegister
 271              		.section	.text.DEBUG_UART_SetTxInterruptMode,"ax",%progbits
 272              		.align	2
 273              		.global	DEBUG_UART_SetTxInterruptMode
 274              		.thumb
 275              		.thumb_func
 276              		.type	DEBUG_UART_SetTxInterruptMode, %function
 277              	DEBUG_UART_SetTxInterruptMode:
 278              	.LFB6:
 313:.\Generated_Source\PSoC5/DEBUG_UART.c **** 
 314:.\Generated_Source\PSoC5/DEBUG_UART.c **** 
 315:.\Generated_Source\PSoC5/DEBUG_UART.c **** #if(DEBUG_UART_RX_ENABLED || DEBUG_UART_HD_ENABLED)
 316:.\Generated_Source\PSoC5/DEBUG_UART.c **** 
 317:.\Generated_Source\PSoC5/DEBUG_UART.c ****     #if(DEBUG_UART_RX_INTERRUPT_ENABLED)
 318:.\Generated_Source\PSoC5/DEBUG_UART.c **** 
 319:.\Generated_Source\PSoC5/DEBUG_UART.c ****         /*******************************************************************************
 320:.\Generated_Source\PSoC5/DEBUG_UART.c ****         * Function Name: DEBUG_UART_EnableRxInt
 321:.\Generated_Source\PSoC5/DEBUG_UART.c ****         ********************************************************************************
 322:.\Generated_Source\PSoC5/DEBUG_UART.c ****         *
 323:.\Generated_Source\PSoC5/DEBUG_UART.c ****         * Summary:
 324:.\Generated_Source\PSoC5/DEBUG_UART.c ****         *  Enable RX interrupt generation
 325:.\Generated_Source\PSoC5/DEBUG_UART.c ****         *
 326:.\Generated_Source\PSoC5/DEBUG_UART.c ****         * Parameters:
 327:.\Generated_Source\PSoC5/DEBUG_UART.c ****         *  None.
 328:.\Generated_Source\PSoC5/DEBUG_UART.c ****         *
 329:.\Generated_Source\PSoC5/DEBUG_UART.c ****         * Return:
 330:.\Generated_Source\PSoC5/DEBUG_UART.c ****         *  None.
 331:.\Generated_Source\PSoC5/DEBUG_UART.c ****         *
 332:.\Generated_Source\PSoC5/DEBUG_UART.c ****         * Theory:
 333:.\Generated_Source\PSoC5/DEBUG_UART.c ****         *  Enable the interrupt output -or- the interrupt component itself
 334:.\Generated_Source\PSoC5/DEBUG_UART.c ****         *
 335:.\Generated_Source\PSoC5/DEBUG_UART.c ****         *******************************************************************************/
 336:.\Generated_Source\PSoC5/DEBUG_UART.c ****         void DEBUG_UART_EnableRxInt(void) 
 337:.\Generated_Source\PSoC5/DEBUG_UART.c ****         {
 338:.\Generated_Source\PSoC5/DEBUG_UART.c ****             CyIntEnable(DEBUG_UART_RX_VECT_NUM);
 339:.\Generated_Source\PSoC5/DEBUG_UART.c ****         }
 340:.\Generated_Source\PSoC5/DEBUG_UART.c **** 
 341:.\Generated_Source\PSoC5/DEBUG_UART.c **** 
 342:.\Generated_Source\PSoC5/DEBUG_UART.c ****         /*******************************************************************************
 343:.\Generated_Source\PSoC5/DEBUG_UART.c ****         * Function Name: DEBUG_UART_DisableRxInt
 344:.\Generated_Source\PSoC5/DEBUG_UART.c ****         ********************************************************************************
 345:.\Generated_Source\PSoC5/DEBUG_UART.c ****         *
 346:.\Generated_Source\PSoC5/DEBUG_UART.c ****         * Summary:
 347:.\Generated_Source\PSoC5/DEBUG_UART.c ****         *  Disable RX interrupt generation
 348:.\Generated_Source\PSoC5/DEBUG_UART.c ****         *
 349:.\Generated_Source\PSoC5/DEBUG_UART.c ****         * Parameters:
ARM GAS  C:\Users\Mark\AppData\Local\Temp\ccMUWMIC.s 			page 12


 350:.\Generated_Source\PSoC5/DEBUG_UART.c ****         *  None.
 351:.\Generated_Source\PSoC5/DEBUG_UART.c ****         *
 352:.\Generated_Source\PSoC5/DEBUG_UART.c ****         * Return:
 353:.\Generated_Source\PSoC5/DEBUG_UART.c ****         *  None.
 354:.\Generated_Source\PSoC5/DEBUG_UART.c ****         *
 355:.\Generated_Source\PSoC5/DEBUG_UART.c ****         * Theory:
 356:.\Generated_Source\PSoC5/DEBUG_UART.c ****         *  Disable the interrupt output -or- the interrupt component itself
 357:.\Generated_Source\PSoC5/DEBUG_UART.c ****         *
 358:.\Generated_Source\PSoC5/DEBUG_UART.c ****         *******************************************************************************/
 359:.\Generated_Source\PSoC5/DEBUG_UART.c ****         void DEBUG_UART_DisableRxInt(void) 
 360:.\Generated_Source\PSoC5/DEBUG_UART.c ****         {
 361:.\Generated_Source\PSoC5/DEBUG_UART.c ****             CyIntDisable(DEBUG_UART_RX_VECT_NUM);
 362:.\Generated_Source\PSoC5/DEBUG_UART.c ****         }
 363:.\Generated_Source\PSoC5/DEBUG_UART.c **** 
 364:.\Generated_Source\PSoC5/DEBUG_UART.c ****     #endif /* DEBUG_UART_RX_INTERRUPT_ENABLED */
 365:.\Generated_Source\PSoC5/DEBUG_UART.c **** 
 366:.\Generated_Source\PSoC5/DEBUG_UART.c **** 
 367:.\Generated_Source\PSoC5/DEBUG_UART.c ****     /*******************************************************************************
 368:.\Generated_Source\PSoC5/DEBUG_UART.c ****     * Function Name: DEBUG_UART_SetRxInterruptMode
 369:.\Generated_Source\PSoC5/DEBUG_UART.c ****     ********************************************************************************
 370:.\Generated_Source\PSoC5/DEBUG_UART.c ****     *
 371:.\Generated_Source\PSoC5/DEBUG_UART.c ****     * Summary:
 372:.\Generated_Source\PSoC5/DEBUG_UART.c ****     *  Configure which status bits trigger an interrupt event
 373:.\Generated_Source\PSoC5/DEBUG_UART.c ****     *
 374:.\Generated_Source\PSoC5/DEBUG_UART.c ****     * Parameters:
 375:.\Generated_Source\PSoC5/DEBUG_UART.c ****     *  IntSrc:  An or'd combination of the desired status bit masks (defined in
 376:.\Generated_Source\PSoC5/DEBUG_UART.c ****     *           the header file)
 377:.\Generated_Source\PSoC5/DEBUG_UART.c ****     *
 378:.\Generated_Source\PSoC5/DEBUG_UART.c ****     * Return:
 379:.\Generated_Source\PSoC5/DEBUG_UART.c ****     *  None.
 380:.\Generated_Source\PSoC5/DEBUG_UART.c ****     *
 381:.\Generated_Source\PSoC5/DEBUG_UART.c ****     * Theory:
 382:.\Generated_Source\PSoC5/DEBUG_UART.c ****     *  Enables the output of specific status bits to the interrupt controller
 383:.\Generated_Source\PSoC5/DEBUG_UART.c ****     *
 384:.\Generated_Source\PSoC5/DEBUG_UART.c ****     *******************************************************************************/
 385:.\Generated_Source\PSoC5/DEBUG_UART.c ****     void DEBUG_UART_SetRxInterruptMode(uint8 intSrc) 
 386:.\Generated_Source\PSoC5/DEBUG_UART.c ****     {
 387:.\Generated_Source\PSoC5/DEBUG_UART.c ****         DEBUG_UART_RXSTATUS_MASK_REG  = intSrc;
 388:.\Generated_Source\PSoC5/DEBUG_UART.c ****     }
 389:.\Generated_Source\PSoC5/DEBUG_UART.c **** 
 390:.\Generated_Source\PSoC5/DEBUG_UART.c **** 
 391:.\Generated_Source\PSoC5/DEBUG_UART.c ****     /*******************************************************************************
 392:.\Generated_Source\PSoC5/DEBUG_UART.c ****     * Function Name: DEBUG_UART_ReadRxData
 393:.\Generated_Source\PSoC5/DEBUG_UART.c ****     ********************************************************************************
 394:.\Generated_Source\PSoC5/DEBUG_UART.c ****     *
 395:.\Generated_Source\PSoC5/DEBUG_UART.c ****     * Summary:
 396:.\Generated_Source\PSoC5/DEBUG_UART.c ****     *  Returns data in RX Data register without checking status register to
 397:.\Generated_Source\PSoC5/DEBUG_UART.c ****     *  determine if data is valid
 398:.\Generated_Source\PSoC5/DEBUG_UART.c ****     *
 399:.\Generated_Source\PSoC5/DEBUG_UART.c ****     * Parameters:
 400:.\Generated_Source\PSoC5/DEBUG_UART.c ****     *  None.
 401:.\Generated_Source\PSoC5/DEBUG_UART.c ****     *
 402:.\Generated_Source\PSoC5/DEBUG_UART.c ****     * Return:
 403:.\Generated_Source\PSoC5/DEBUG_UART.c ****     *  Received data from RX register
 404:.\Generated_Source\PSoC5/DEBUG_UART.c ****     *
 405:.\Generated_Source\PSoC5/DEBUG_UART.c ****     * Global Variables:
 406:.\Generated_Source\PSoC5/DEBUG_UART.c ****     *  DEBUG_UART_rxBuffer - RAM buffer pointer for save received data.
ARM GAS  C:\Users\Mark\AppData\Local\Temp\ccMUWMIC.s 			page 13


 407:.\Generated_Source\PSoC5/DEBUG_UART.c ****     *  DEBUG_UART_rxBufferWrite - cyclic index for write to rxBuffer,
 408:.\Generated_Source\PSoC5/DEBUG_UART.c ****     *     checked to identify new data.
 409:.\Generated_Source\PSoC5/DEBUG_UART.c ****     *  DEBUG_UART_rxBufferRead - cyclic index for read from rxBuffer,
 410:.\Generated_Source\PSoC5/DEBUG_UART.c ****     *     incremented after each byte has been read from buffer.
 411:.\Generated_Source\PSoC5/DEBUG_UART.c ****     *  DEBUG_UART_rxBufferLoopDetect - creared if loop condition was detected
 412:.\Generated_Source\PSoC5/DEBUG_UART.c ****     *     in RX ISR.
 413:.\Generated_Source\PSoC5/DEBUG_UART.c ****     *
 414:.\Generated_Source\PSoC5/DEBUG_UART.c ****     * Reentrant:
 415:.\Generated_Source\PSoC5/DEBUG_UART.c ****     *  No.
 416:.\Generated_Source\PSoC5/DEBUG_UART.c ****     *
 417:.\Generated_Source\PSoC5/DEBUG_UART.c ****     *******************************************************************************/
 418:.\Generated_Source\PSoC5/DEBUG_UART.c ****     uint8 DEBUG_UART_ReadRxData(void) 
 419:.\Generated_Source\PSoC5/DEBUG_UART.c ****     {
 420:.\Generated_Source\PSoC5/DEBUG_UART.c ****         uint8 rxData;
 421:.\Generated_Source\PSoC5/DEBUG_UART.c **** 
 422:.\Generated_Source\PSoC5/DEBUG_UART.c ****         #if(DEBUG_UART_RXBUFFERSIZE > DEBUG_UART_FIFO_LENGTH)
 423:.\Generated_Source\PSoC5/DEBUG_UART.c ****             uint8 loc_rxBufferRead;
 424:.\Generated_Source\PSoC5/DEBUG_UART.c ****             uint8 loc_rxBufferWrite;
 425:.\Generated_Source\PSoC5/DEBUG_UART.c ****             /* Protect variables that could change on interrupt. */
 426:.\Generated_Source\PSoC5/DEBUG_UART.c ****             /* Disable Rx interrupt. */
 427:.\Generated_Source\PSoC5/DEBUG_UART.c ****             #if(DEBUG_UART_RX_INTERRUPT_ENABLED)
 428:.\Generated_Source\PSoC5/DEBUG_UART.c ****                 DEBUG_UART_DisableRxInt();
 429:.\Generated_Source\PSoC5/DEBUG_UART.c ****             #endif /* DEBUG_UART_RX_INTERRUPT_ENABLED */
 430:.\Generated_Source\PSoC5/DEBUG_UART.c ****             loc_rxBufferRead = DEBUG_UART_rxBufferRead;
 431:.\Generated_Source\PSoC5/DEBUG_UART.c ****             loc_rxBufferWrite = DEBUG_UART_rxBufferWrite;
 432:.\Generated_Source\PSoC5/DEBUG_UART.c **** 
 433:.\Generated_Source\PSoC5/DEBUG_UART.c ****             if( (DEBUG_UART_rxBufferLoopDetect != 0u) || (loc_rxBufferRead != loc_rxBufferWrite) )
 434:.\Generated_Source\PSoC5/DEBUG_UART.c ****             {
 435:.\Generated_Source\PSoC5/DEBUG_UART.c ****                 rxData = DEBUG_UART_rxBuffer[loc_rxBufferRead];
 436:.\Generated_Source\PSoC5/DEBUG_UART.c ****                 loc_rxBufferRead++;
 437:.\Generated_Source\PSoC5/DEBUG_UART.c **** 
 438:.\Generated_Source\PSoC5/DEBUG_UART.c ****                 if(loc_rxBufferRead >= DEBUG_UART_RXBUFFERSIZE)
 439:.\Generated_Source\PSoC5/DEBUG_UART.c ****                 {
 440:.\Generated_Source\PSoC5/DEBUG_UART.c ****                     loc_rxBufferRead = 0u;
 441:.\Generated_Source\PSoC5/DEBUG_UART.c ****                 }
 442:.\Generated_Source\PSoC5/DEBUG_UART.c ****                 /* Update the real pointer */
 443:.\Generated_Source\PSoC5/DEBUG_UART.c ****                 DEBUG_UART_rxBufferRead = loc_rxBufferRead;
 444:.\Generated_Source\PSoC5/DEBUG_UART.c **** 
 445:.\Generated_Source\PSoC5/DEBUG_UART.c ****                 if(DEBUG_UART_rxBufferLoopDetect != 0u )
 446:.\Generated_Source\PSoC5/DEBUG_UART.c ****                 {
 447:.\Generated_Source\PSoC5/DEBUG_UART.c ****                     DEBUG_UART_rxBufferLoopDetect = 0u;
 448:.\Generated_Source\PSoC5/DEBUG_UART.c ****                     #if( (DEBUG_UART_RX_INTERRUPT_ENABLED) && (DEBUG_UART_FLOW_CONTROL != 0u) && \
 449:.\Generated_Source\PSoC5/DEBUG_UART.c ****                          (DEBUG_UART_RXBUFFERSIZE > DEBUG_UART_FIFO_LENGTH) )
 450:.\Generated_Source\PSoC5/DEBUG_UART.c ****                         /* When Hardware Flow Control selected - return RX mask */
 451:.\Generated_Source\PSoC5/DEBUG_UART.c ****                         #if( DEBUG_UART_HD_ENABLED )
 452:.\Generated_Source\PSoC5/DEBUG_UART.c ****                             if((DEBUG_UART_CONTROL_REG & DEBUG_UART_CTRL_HD_SEND) == 0u)
 453:.\Generated_Source\PSoC5/DEBUG_UART.c ****                             {   /* In Half duplex mode return RX mask only in RX
 454:.\Generated_Source\PSoC5/DEBUG_UART.c ****                                 *  configuration set, otherwise
 455:.\Generated_Source\PSoC5/DEBUG_UART.c ****                                 *  mask will be returned in LoadRxConfig() API.
 456:.\Generated_Source\PSoC5/DEBUG_UART.c ****                                 */
 457:.\Generated_Source\PSoC5/DEBUG_UART.c ****                                 DEBUG_UART_RXSTATUS_MASK_REG  |= DEBUG_UART_RX_STS_FIFO_NOTEMPTY;
 458:.\Generated_Source\PSoC5/DEBUG_UART.c ****                             }
 459:.\Generated_Source\PSoC5/DEBUG_UART.c ****                         #else
 460:.\Generated_Source\PSoC5/DEBUG_UART.c ****                             DEBUG_UART_RXSTATUS_MASK_REG  |= DEBUG_UART_RX_STS_FIFO_NOTEMPTY;
 461:.\Generated_Source\PSoC5/DEBUG_UART.c ****                         #endif /* end DEBUG_UART_HD_ENABLED */
 462:.\Generated_Source\PSoC5/DEBUG_UART.c ****                     #endif /* DEBUG_UART_RX_INTERRUPT_ENABLED and Hardware flow control*/
 463:.\Generated_Source\PSoC5/DEBUG_UART.c ****                 }
ARM GAS  C:\Users\Mark\AppData\Local\Temp\ccMUWMIC.s 			page 14


 464:.\Generated_Source\PSoC5/DEBUG_UART.c ****             }
 465:.\Generated_Source\PSoC5/DEBUG_UART.c ****             else
 466:.\Generated_Source\PSoC5/DEBUG_UART.c ****             {   /* Needs to check status for RX_STS_FIFO_NOTEMPTY bit*/
 467:.\Generated_Source\PSoC5/DEBUG_UART.c ****                 rxData = DEBUG_UART_RXDATA_REG;
 468:.\Generated_Source\PSoC5/DEBUG_UART.c ****             }
 469:.\Generated_Source\PSoC5/DEBUG_UART.c **** 
 470:.\Generated_Source\PSoC5/DEBUG_UART.c ****             /* Enable Rx interrupt. */
 471:.\Generated_Source\PSoC5/DEBUG_UART.c ****             #if(DEBUG_UART_RX_INTERRUPT_ENABLED)
 472:.\Generated_Source\PSoC5/DEBUG_UART.c ****                 DEBUG_UART_EnableRxInt();
 473:.\Generated_Source\PSoC5/DEBUG_UART.c ****             #endif /* End DEBUG_UART_RX_INTERRUPT_ENABLED */
 474:.\Generated_Source\PSoC5/DEBUG_UART.c **** 
 475:.\Generated_Source\PSoC5/DEBUG_UART.c ****         #else /* DEBUG_UART_RXBUFFERSIZE > DEBUG_UART_FIFO_LENGTH */
 476:.\Generated_Source\PSoC5/DEBUG_UART.c **** 
 477:.\Generated_Source\PSoC5/DEBUG_UART.c ****             /* Needs to check status for RX_STS_FIFO_NOTEMPTY bit*/
 478:.\Generated_Source\PSoC5/DEBUG_UART.c ****             rxData = DEBUG_UART_RXDATA_REG;
 479:.\Generated_Source\PSoC5/DEBUG_UART.c **** 
 480:.\Generated_Source\PSoC5/DEBUG_UART.c ****         #endif /* DEBUG_UART_RXBUFFERSIZE > DEBUG_UART_FIFO_LENGTH */
 481:.\Generated_Source\PSoC5/DEBUG_UART.c **** 
 482:.\Generated_Source\PSoC5/DEBUG_UART.c ****         return(rxData);
 483:.\Generated_Source\PSoC5/DEBUG_UART.c ****     }
 484:.\Generated_Source\PSoC5/DEBUG_UART.c **** 
 485:.\Generated_Source\PSoC5/DEBUG_UART.c **** 
 486:.\Generated_Source\PSoC5/DEBUG_UART.c ****     /*******************************************************************************
 487:.\Generated_Source\PSoC5/DEBUG_UART.c ****     * Function Name: DEBUG_UART_ReadRxStatus
 488:.\Generated_Source\PSoC5/DEBUG_UART.c ****     ********************************************************************************
 489:.\Generated_Source\PSoC5/DEBUG_UART.c ****     *
 490:.\Generated_Source\PSoC5/DEBUG_UART.c ****     * Summary:
 491:.\Generated_Source\PSoC5/DEBUG_UART.c ****     *  Read the current state of the status register
 492:.\Generated_Source\PSoC5/DEBUG_UART.c ****     *  And detect software buffer overflow.
 493:.\Generated_Source\PSoC5/DEBUG_UART.c ****     *
 494:.\Generated_Source\PSoC5/DEBUG_UART.c ****     * Parameters:
 495:.\Generated_Source\PSoC5/DEBUG_UART.c ****     *  None.
 496:.\Generated_Source\PSoC5/DEBUG_UART.c ****     *
 497:.\Generated_Source\PSoC5/DEBUG_UART.c ****     * Return:
 498:.\Generated_Source\PSoC5/DEBUG_UART.c ****     *  Current state of the status register.
 499:.\Generated_Source\PSoC5/DEBUG_UART.c ****     *
 500:.\Generated_Source\PSoC5/DEBUG_UART.c ****     * Global Variables:
 501:.\Generated_Source\PSoC5/DEBUG_UART.c ****     *  DEBUG_UART_rxBufferOverflow - used to indicate overload condition.
 502:.\Generated_Source\PSoC5/DEBUG_UART.c ****     *   It set to one in RX interrupt when there isn?t free space in
 503:.\Generated_Source\PSoC5/DEBUG_UART.c ****     *   DEBUG_UART_rxBufferRead to write new data. This condition returned
 504:.\Generated_Source\PSoC5/DEBUG_UART.c ****     *   and cleared to zero by this API as an
 505:.\Generated_Source\PSoC5/DEBUG_UART.c ****     *   DEBUG_UART_RX_STS_SOFT_BUFF_OVER bit along with RX Status register
 506:.\Generated_Source\PSoC5/DEBUG_UART.c ****     *   bits.
 507:.\Generated_Source\PSoC5/DEBUG_UART.c ****     *
 508:.\Generated_Source\PSoC5/DEBUG_UART.c ****     *******************************************************************************/
 509:.\Generated_Source\PSoC5/DEBUG_UART.c ****     uint8 DEBUG_UART_ReadRxStatus(void) 
 510:.\Generated_Source\PSoC5/DEBUG_UART.c ****     {
 511:.\Generated_Source\PSoC5/DEBUG_UART.c ****         uint8 status;
 512:.\Generated_Source\PSoC5/DEBUG_UART.c **** 
 513:.\Generated_Source\PSoC5/DEBUG_UART.c ****         status = DEBUG_UART_RXSTATUS_REG & DEBUG_UART_RX_HW_MASK;
 514:.\Generated_Source\PSoC5/DEBUG_UART.c **** 
 515:.\Generated_Source\PSoC5/DEBUG_UART.c ****         #if(DEBUG_UART_RXBUFFERSIZE > DEBUG_UART_FIFO_LENGTH)
 516:.\Generated_Source\PSoC5/DEBUG_UART.c ****             if( DEBUG_UART_rxBufferOverflow != 0u )
 517:.\Generated_Source\PSoC5/DEBUG_UART.c ****             {
 518:.\Generated_Source\PSoC5/DEBUG_UART.c ****                 status |= DEBUG_UART_RX_STS_SOFT_BUFF_OVER;
 519:.\Generated_Source\PSoC5/DEBUG_UART.c ****                 DEBUG_UART_rxBufferOverflow = 0u;
 520:.\Generated_Source\PSoC5/DEBUG_UART.c ****             }
ARM GAS  C:\Users\Mark\AppData\Local\Temp\ccMUWMIC.s 			page 15


 521:.\Generated_Source\PSoC5/DEBUG_UART.c ****         #endif /* DEBUG_UART_RXBUFFERSIZE */
 522:.\Generated_Source\PSoC5/DEBUG_UART.c **** 
 523:.\Generated_Source\PSoC5/DEBUG_UART.c ****         return(status);
 524:.\Generated_Source\PSoC5/DEBUG_UART.c ****     }
 525:.\Generated_Source\PSoC5/DEBUG_UART.c **** 
 526:.\Generated_Source\PSoC5/DEBUG_UART.c **** 
 527:.\Generated_Source\PSoC5/DEBUG_UART.c ****     /*******************************************************************************
 528:.\Generated_Source\PSoC5/DEBUG_UART.c ****     * Function Name: DEBUG_UART_GetChar
 529:.\Generated_Source\PSoC5/DEBUG_UART.c ****     ********************************************************************************
 530:.\Generated_Source\PSoC5/DEBUG_UART.c ****     *
 531:.\Generated_Source\PSoC5/DEBUG_UART.c ****     * Summary:
 532:.\Generated_Source\PSoC5/DEBUG_UART.c ****     *  Reads UART RX buffer immediately, if data is not available or an error
 533:.\Generated_Source\PSoC5/DEBUG_UART.c ****     *  condition exists, zero is returned; otherwise, character is read and
 534:.\Generated_Source\PSoC5/DEBUG_UART.c ****     *  returned.
 535:.\Generated_Source\PSoC5/DEBUG_UART.c ****     *
 536:.\Generated_Source\PSoC5/DEBUG_UART.c ****     * Parameters:
 537:.\Generated_Source\PSoC5/DEBUG_UART.c ****     *  None.
 538:.\Generated_Source\PSoC5/DEBUG_UART.c ****     *
 539:.\Generated_Source\PSoC5/DEBUG_UART.c ****     * Return:
 540:.\Generated_Source\PSoC5/DEBUG_UART.c ****     *  Character read from UART RX buffer. ASCII characters from 1 to 255 are valid.
 541:.\Generated_Source\PSoC5/DEBUG_UART.c ****     *  A returned zero signifies an error condition or no data available.
 542:.\Generated_Source\PSoC5/DEBUG_UART.c ****     *
 543:.\Generated_Source\PSoC5/DEBUG_UART.c ****     * Global Variables:
 544:.\Generated_Source\PSoC5/DEBUG_UART.c ****     *  DEBUG_UART_rxBuffer - RAM buffer pointer for save received data.
 545:.\Generated_Source\PSoC5/DEBUG_UART.c ****     *  DEBUG_UART_rxBufferWrite - cyclic index for write to rxBuffer,
 546:.\Generated_Source\PSoC5/DEBUG_UART.c ****     *     checked to identify new data.
 547:.\Generated_Source\PSoC5/DEBUG_UART.c ****     *  DEBUG_UART_rxBufferRead - cyclic index for read from rxBuffer,
 548:.\Generated_Source\PSoC5/DEBUG_UART.c ****     *     incremented after each byte has been read from buffer.
 549:.\Generated_Source\PSoC5/DEBUG_UART.c ****     *  DEBUG_UART_rxBufferLoopDetect - creared if loop condition was detected
 550:.\Generated_Source\PSoC5/DEBUG_UART.c ****     *     in RX ISR.
 551:.\Generated_Source\PSoC5/DEBUG_UART.c ****     *
 552:.\Generated_Source\PSoC5/DEBUG_UART.c ****     * Reentrant:
 553:.\Generated_Source\PSoC5/DEBUG_UART.c ****     *  No.
 554:.\Generated_Source\PSoC5/DEBUG_UART.c ****     *
 555:.\Generated_Source\PSoC5/DEBUG_UART.c ****     *******************************************************************************/
 556:.\Generated_Source\PSoC5/DEBUG_UART.c ****     uint8 DEBUG_UART_GetChar(void) 
 557:.\Generated_Source\PSoC5/DEBUG_UART.c ****     {
 558:.\Generated_Source\PSoC5/DEBUG_UART.c ****         uint8 rxData = 0u;
 559:.\Generated_Source\PSoC5/DEBUG_UART.c ****         uint8 rxStatus;
 560:.\Generated_Source\PSoC5/DEBUG_UART.c **** 
 561:.\Generated_Source\PSoC5/DEBUG_UART.c ****         #if(DEBUG_UART_RXBUFFERSIZE > DEBUG_UART_FIFO_LENGTH)
 562:.\Generated_Source\PSoC5/DEBUG_UART.c ****             uint8 loc_rxBufferRead;
 563:.\Generated_Source\PSoC5/DEBUG_UART.c ****             uint8 loc_rxBufferWrite;
 564:.\Generated_Source\PSoC5/DEBUG_UART.c ****             /* Protect variables that could change on interrupt. */
 565:.\Generated_Source\PSoC5/DEBUG_UART.c ****             /* Disable Rx interrupt. */
 566:.\Generated_Source\PSoC5/DEBUG_UART.c ****             #if(DEBUG_UART_RX_INTERRUPT_ENABLED)
 567:.\Generated_Source\PSoC5/DEBUG_UART.c ****                 DEBUG_UART_DisableRxInt();
 568:.\Generated_Source\PSoC5/DEBUG_UART.c ****             #endif /* DEBUG_UART_RX_INTERRUPT_ENABLED */
 569:.\Generated_Source\PSoC5/DEBUG_UART.c ****             loc_rxBufferRead = DEBUG_UART_rxBufferRead;
 570:.\Generated_Source\PSoC5/DEBUG_UART.c ****             loc_rxBufferWrite = DEBUG_UART_rxBufferWrite;
 571:.\Generated_Source\PSoC5/DEBUG_UART.c **** 
 572:.\Generated_Source\PSoC5/DEBUG_UART.c ****             if( (DEBUG_UART_rxBufferLoopDetect != 0u) || (loc_rxBufferRead != loc_rxBufferWrite) )
 573:.\Generated_Source\PSoC5/DEBUG_UART.c ****             {
 574:.\Generated_Source\PSoC5/DEBUG_UART.c ****                 rxData = DEBUG_UART_rxBuffer[loc_rxBufferRead];
 575:.\Generated_Source\PSoC5/DEBUG_UART.c ****                 loc_rxBufferRead++;
 576:.\Generated_Source\PSoC5/DEBUG_UART.c ****                 if(loc_rxBufferRead >= DEBUG_UART_RXBUFFERSIZE)
 577:.\Generated_Source\PSoC5/DEBUG_UART.c ****                 {
ARM GAS  C:\Users\Mark\AppData\Local\Temp\ccMUWMIC.s 			page 16


 578:.\Generated_Source\PSoC5/DEBUG_UART.c ****                     loc_rxBufferRead = 0u;
 579:.\Generated_Source\PSoC5/DEBUG_UART.c ****                 }
 580:.\Generated_Source\PSoC5/DEBUG_UART.c ****                 /* Update the real pointer */
 581:.\Generated_Source\PSoC5/DEBUG_UART.c ****                 DEBUG_UART_rxBufferRead = loc_rxBufferRead;
 582:.\Generated_Source\PSoC5/DEBUG_UART.c **** 
 583:.\Generated_Source\PSoC5/DEBUG_UART.c ****                 if(DEBUG_UART_rxBufferLoopDetect > 0u )
 584:.\Generated_Source\PSoC5/DEBUG_UART.c ****                 {
 585:.\Generated_Source\PSoC5/DEBUG_UART.c ****                     DEBUG_UART_rxBufferLoopDetect = 0u;
 586:.\Generated_Source\PSoC5/DEBUG_UART.c ****                     #if( (DEBUG_UART_RX_INTERRUPT_ENABLED) && (DEBUG_UART_FLOW_CONTROL != 0u) )
 587:.\Generated_Source\PSoC5/DEBUG_UART.c ****                         /* When Hardware Flow Control selected - return RX mask */
 588:.\Generated_Source\PSoC5/DEBUG_UART.c ****                         #if( DEBUG_UART_HD_ENABLED )
 589:.\Generated_Source\PSoC5/DEBUG_UART.c ****                             if((DEBUG_UART_CONTROL_REG & DEBUG_UART_CTRL_HD_SEND) == 0u)
 590:.\Generated_Source\PSoC5/DEBUG_UART.c ****                             {   /* In Half duplex mode return RX mask only if
 591:.\Generated_Source\PSoC5/DEBUG_UART.c ****                                 *  RX configuration set, otherwise
 592:.\Generated_Source\PSoC5/DEBUG_UART.c ****                                 *  mask will be returned in LoadRxConfig() API.
 593:.\Generated_Source\PSoC5/DEBUG_UART.c ****                                 */
 594:.\Generated_Source\PSoC5/DEBUG_UART.c ****                                 DEBUG_UART_RXSTATUS_MASK_REG  |= DEBUG_UART_RX_STS_FIFO_NOTEMPTY;
 595:.\Generated_Source\PSoC5/DEBUG_UART.c ****                             }
 596:.\Generated_Source\PSoC5/DEBUG_UART.c ****                         #else
 597:.\Generated_Source\PSoC5/DEBUG_UART.c ****                             DEBUG_UART_RXSTATUS_MASK_REG  |= DEBUG_UART_RX_STS_FIFO_NOTEMPTY;
 598:.\Generated_Source\PSoC5/DEBUG_UART.c ****                         #endif /* end DEBUG_UART_HD_ENABLED */
 599:.\Generated_Source\PSoC5/DEBUG_UART.c ****                     #endif /* DEBUG_UART_RX_INTERRUPT_ENABLED and Hardware flow control*/
 600:.\Generated_Source\PSoC5/DEBUG_UART.c ****                 }
 601:.\Generated_Source\PSoC5/DEBUG_UART.c **** 
 602:.\Generated_Source\PSoC5/DEBUG_UART.c ****             }
 603:.\Generated_Source\PSoC5/DEBUG_UART.c ****             else
 604:.\Generated_Source\PSoC5/DEBUG_UART.c ****             {   rxStatus = DEBUG_UART_RXSTATUS_REG;
 605:.\Generated_Source\PSoC5/DEBUG_UART.c ****                 if((rxStatus & DEBUG_UART_RX_STS_FIFO_NOTEMPTY) != 0u)
 606:.\Generated_Source\PSoC5/DEBUG_UART.c ****                 {   /* Read received data from FIFO*/
 607:.\Generated_Source\PSoC5/DEBUG_UART.c ****                     rxData = DEBUG_UART_RXDATA_REG;
 608:.\Generated_Source\PSoC5/DEBUG_UART.c ****                     /*Check status on error*/
 609:.\Generated_Source\PSoC5/DEBUG_UART.c ****                     if((rxStatus & (DEBUG_UART_RX_STS_BREAK | DEBUG_UART_RX_STS_PAR_ERROR |
 610:.\Generated_Source\PSoC5/DEBUG_UART.c ****                                    DEBUG_UART_RX_STS_STOP_ERROR | DEBUG_UART_RX_STS_OVERRUN)) != 0u
 611:.\Generated_Source\PSoC5/DEBUG_UART.c ****                     {
 612:.\Generated_Source\PSoC5/DEBUG_UART.c ****                         rxData = 0u;
 613:.\Generated_Source\PSoC5/DEBUG_UART.c ****                     }
 614:.\Generated_Source\PSoC5/DEBUG_UART.c ****                 }
 615:.\Generated_Source\PSoC5/DEBUG_UART.c ****             }
 616:.\Generated_Source\PSoC5/DEBUG_UART.c **** 
 617:.\Generated_Source\PSoC5/DEBUG_UART.c ****             /* Enable Rx interrupt. */
 618:.\Generated_Source\PSoC5/DEBUG_UART.c ****             #if(DEBUG_UART_RX_INTERRUPT_ENABLED)
 619:.\Generated_Source\PSoC5/DEBUG_UART.c ****                 DEBUG_UART_EnableRxInt();
 620:.\Generated_Source\PSoC5/DEBUG_UART.c ****             #endif /* DEBUG_UART_RX_INTERRUPT_ENABLED */
 621:.\Generated_Source\PSoC5/DEBUG_UART.c **** 
 622:.\Generated_Source\PSoC5/DEBUG_UART.c ****         #else /* DEBUG_UART_RXBUFFERSIZE > DEBUG_UART_FIFO_LENGTH */
 623:.\Generated_Source\PSoC5/DEBUG_UART.c **** 
 624:.\Generated_Source\PSoC5/DEBUG_UART.c ****             rxStatus =DEBUG_UART_RXSTATUS_REG;
 625:.\Generated_Source\PSoC5/DEBUG_UART.c ****             if((rxStatus & DEBUG_UART_RX_STS_FIFO_NOTEMPTY) != 0u)
 626:.\Generated_Source\PSoC5/DEBUG_UART.c ****             {   /* Read received data from FIFO*/
 627:.\Generated_Source\PSoC5/DEBUG_UART.c ****                 rxData = DEBUG_UART_RXDATA_REG;
 628:.\Generated_Source\PSoC5/DEBUG_UART.c ****                 /*Check status on error*/
 629:.\Generated_Source\PSoC5/DEBUG_UART.c ****                 if((rxStatus & (DEBUG_UART_RX_STS_BREAK | DEBUG_UART_RX_STS_PAR_ERROR |
 630:.\Generated_Source\PSoC5/DEBUG_UART.c ****                                DEBUG_UART_RX_STS_STOP_ERROR | DEBUG_UART_RX_STS_OVERRUN)) != 0u)
 631:.\Generated_Source\PSoC5/DEBUG_UART.c ****                 {
 632:.\Generated_Source\PSoC5/DEBUG_UART.c ****                     rxData = 0u;
 633:.\Generated_Source\PSoC5/DEBUG_UART.c ****                 }
 634:.\Generated_Source\PSoC5/DEBUG_UART.c ****             }
ARM GAS  C:\Users\Mark\AppData\Local\Temp\ccMUWMIC.s 			page 17


 635:.\Generated_Source\PSoC5/DEBUG_UART.c ****         #endif /* DEBUG_UART_RXBUFFERSIZE > DEBUG_UART_FIFO_LENGTH */
 636:.\Generated_Source\PSoC5/DEBUG_UART.c **** 
 637:.\Generated_Source\PSoC5/DEBUG_UART.c ****         return(rxData);
 638:.\Generated_Source\PSoC5/DEBUG_UART.c ****     }
 639:.\Generated_Source\PSoC5/DEBUG_UART.c **** 
 640:.\Generated_Source\PSoC5/DEBUG_UART.c **** 
 641:.\Generated_Source\PSoC5/DEBUG_UART.c ****     /*******************************************************************************
 642:.\Generated_Source\PSoC5/DEBUG_UART.c ****     * Function Name: DEBUG_UART_GetByte
 643:.\Generated_Source\PSoC5/DEBUG_UART.c ****     ********************************************************************************
 644:.\Generated_Source\PSoC5/DEBUG_UART.c ****     *
 645:.\Generated_Source\PSoC5/DEBUG_UART.c ****     * Summary:
 646:.\Generated_Source\PSoC5/DEBUG_UART.c ****     *  Grab the next available byte of data from the recieve FIFO
 647:.\Generated_Source\PSoC5/DEBUG_UART.c ****     *
 648:.\Generated_Source\PSoC5/DEBUG_UART.c ****     * Parameters:
 649:.\Generated_Source\PSoC5/DEBUG_UART.c ****     *  None.
 650:.\Generated_Source\PSoC5/DEBUG_UART.c ****     *
 651:.\Generated_Source\PSoC5/DEBUG_UART.c ****     * Return:
 652:.\Generated_Source\PSoC5/DEBUG_UART.c ****     *  MSB contains Status Register and LSB contains UART RX data
 653:.\Generated_Source\PSoC5/DEBUG_UART.c ****     *
 654:.\Generated_Source\PSoC5/DEBUG_UART.c ****     * Reentrant:
 655:.\Generated_Source\PSoC5/DEBUG_UART.c ****     *  No.
 656:.\Generated_Source\PSoC5/DEBUG_UART.c ****     *
 657:.\Generated_Source\PSoC5/DEBUG_UART.c ****     *******************************************************************************/
 658:.\Generated_Source\PSoC5/DEBUG_UART.c ****     uint16 DEBUG_UART_GetByte(void) 
 659:.\Generated_Source\PSoC5/DEBUG_UART.c ****     {
 660:.\Generated_Source\PSoC5/DEBUG_UART.c ****         return ( ((uint16)DEBUG_UART_ReadRxStatus() << 8u) | DEBUG_UART_ReadRxData() );
 661:.\Generated_Source\PSoC5/DEBUG_UART.c ****     }
 662:.\Generated_Source\PSoC5/DEBUG_UART.c **** 
 663:.\Generated_Source\PSoC5/DEBUG_UART.c **** 
 664:.\Generated_Source\PSoC5/DEBUG_UART.c ****     /*******************************************************************************
 665:.\Generated_Source\PSoC5/DEBUG_UART.c ****     * Function Name: DEBUG_UART_GetRxBufferSize
 666:.\Generated_Source\PSoC5/DEBUG_UART.c ****     ********************************************************************************
 667:.\Generated_Source\PSoC5/DEBUG_UART.c ****     *
 668:.\Generated_Source\PSoC5/DEBUG_UART.c ****     * Summary:
 669:.\Generated_Source\PSoC5/DEBUG_UART.c ****     *  Determine the amount of bytes left in the RX buffer and return the count in
 670:.\Generated_Source\PSoC5/DEBUG_UART.c ****     *  bytes
 671:.\Generated_Source\PSoC5/DEBUG_UART.c ****     *
 672:.\Generated_Source\PSoC5/DEBUG_UART.c ****     * Parameters:
 673:.\Generated_Source\PSoC5/DEBUG_UART.c ****     *  None.
 674:.\Generated_Source\PSoC5/DEBUG_UART.c ****     *
 675:.\Generated_Source\PSoC5/DEBUG_UART.c ****     * Return:
 676:.\Generated_Source\PSoC5/DEBUG_UART.c ****     *  uint8: Integer count of the number of bytes left
 677:.\Generated_Source\PSoC5/DEBUG_UART.c ****     *  in the RX buffer
 678:.\Generated_Source\PSoC5/DEBUG_UART.c ****     *
 679:.\Generated_Source\PSoC5/DEBUG_UART.c ****     * Global Variables:
 680:.\Generated_Source\PSoC5/DEBUG_UART.c ****     *  DEBUG_UART_rxBufferWrite - used to calculate left bytes.
 681:.\Generated_Source\PSoC5/DEBUG_UART.c ****     *  DEBUG_UART_rxBufferRead - used to calculate left bytes.
 682:.\Generated_Source\PSoC5/DEBUG_UART.c ****     *  DEBUG_UART_rxBufferLoopDetect - checked to decide left bytes amount.
 683:.\Generated_Source\PSoC5/DEBUG_UART.c ****     *
 684:.\Generated_Source\PSoC5/DEBUG_UART.c ****     * Reentrant:
 685:.\Generated_Source\PSoC5/DEBUG_UART.c ****     *  No.
 686:.\Generated_Source\PSoC5/DEBUG_UART.c ****     *
 687:.\Generated_Source\PSoC5/DEBUG_UART.c ****     * Theory:
 688:.\Generated_Source\PSoC5/DEBUG_UART.c ****     *  Allows the user to find out how full the RX Buffer is.
 689:.\Generated_Source\PSoC5/DEBUG_UART.c ****     *
 690:.\Generated_Source\PSoC5/DEBUG_UART.c ****     *******************************************************************************/
 691:.\Generated_Source\PSoC5/DEBUG_UART.c ****     uint8 DEBUG_UART_GetRxBufferSize(void)
ARM GAS  C:\Users\Mark\AppData\Local\Temp\ccMUWMIC.s 			page 18


 692:.\Generated_Source\PSoC5/DEBUG_UART.c ****                                                             
 693:.\Generated_Source\PSoC5/DEBUG_UART.c ****     {
 694:.\Generated_Source\PSoC5/DEBUG_UART.c ****         uint8 size;
 695:.\Generated_Source\PSoC5/DEBUG_UART.c **** 
 696:.\Generated_Source\PSoC5/DEBUG_UART.c ****         #if(DEBUG_UART_RXBUFFERSIZE > DEBUG_UART_FIFO_LENGTH)
 697:.\Generated_Source\PSoC5/DEBUG_UART.c **** 
 698:.\Generated_Source\PSoC5/DEBUG_UART.c ****             /* Disable Rx interrupt. */
 699:.\Generated_Source\PSoC5/DEBUG_UART.c ****             /* Protect variables that could change on interrupt. */
 700:.\Generated_Source\PSoC5/DEBUG_UART.c ****             #if(DEBUG_UART_RX_INTERRUPT_ENABLED)
 701:.\Generated_Source\PSoC5/DEBUG_UART.c ****                 DEBUG_UART_DisableRxInt();
 702:.\Generated_Source\PSoC5/DEBUG_UART.c ****             #endif /* DEBUG_UART_RX_INTERRUPT_ENABLED */
 703:.\Generated_Source\PSoC5/DEBUG_UART.c **** 
 704:.\Generated_Source\PSoC5/DEBUG_UART.c ****             if(DEBUG_UART_rxBufferRead == DEBUG_UART_rxBufferWrite)
 705:.\Generated_Source\PSoC5/DEBUG_UART.c ****             {
 706:.\Generated_Source\PSoC5/DEBUG_UART.c ****                 if(DEBUG_UART_rxBufferLoopDetect > 0u)
 707:.\Generated_Source\PSoC5/DEBUG_UART.c ****                 {
 708:.\Generated_Source\PSoC5/DEBUG_UART.c ****                     size = DEBUG_UART_RXBUFFERSIZE;
 709:.\Generated_Source\PSoC5/DEBUG_UART.c ****                 }
 710:.\Generated_Source\PSoC5/DEBUG_UART.c ****                 else
 711:.\Generated_Source\PSoC5/DEBUG_UART.c ****                 {
 712:.\Generated_Source\PSoC5/DEBUG_UART.c ****                     size = 0u;
 713:.\Generated_Source\PSoC5/DEBUG_UART.c ****                 }
 714:.\Generated_Source\PSoC5/DEBUG_UART.c ****             }
 715:.\Generated_Source\PSoC5/DEBUG_UART.c ****             else if(DEBUG_UART_rxBufferRead < DEBUG_UART_rxBufferWrite)
 716:.\Generated_Source\PSoC5/DEBUG_UART.c ****             {
 717:.\Generated_Source\PSoC5/DEBUG_UART.c ****                 size = (DEBUG_UART_rxBufferWrite - DEBUG_UART_rxBufferRead);
 718:.\Generated_Source\PSoC5/DEBUG_UART.c ****             }
 719:.\Generated_Source\PSoC5/DEBUG_UART.c ****             else
 720:.\Generated_Source\PSoC5/DEBUG_UART.c ****             {
 721:.\Generated_Source\PSoC5/DEBUG_UART.c ****                 size = (DEBUG_UART_RXBUFFERSIZE - DEBUG_UART_rxBufferRead) + DEBUG_UART_rxBufferWri
 722:.\Generated_Source\PSoC5/DEBUG_UART.c ****             }
 723:.\Generated_Source\PSoC5/DEBUG_UART.c **** 
 724:.\Generated_Source\PSoC5/DEBUG_UART.c ****             /* Enable Rx interrupt. */
 725:.\Generated_Source\PSoC5/DEBUG_UART.c ****             #if(DEBUG_UART_RX_INTERRUPT_ENABLED)
 726:.\Generated_Source\PSoC5/DEBUG_UART.c ****                 DEBUG_UART_EnableRxInt();
 727:.\Generated_Source\PSoC5/DEBUG_UART.c ****             #endif /* End DEBUG_UART_RX_INTERRUPT_ENABLED */
 728:.\Generated_Source\PSoC5/DEBUG_UART.c **** 
 729:.\Generated_Source\PSoC5/DEBUG_UART.c ****         #else /* DEBUG_UART_RXBUFFERSIZE > DEBUG_UART_FIFO_LENGTH */
 730:.\Generated_Source\PSoC5/DEBUG_UART.c **** 
 731:.\Generated_Source\PSoC5/DEBUG_UART.c ****             /* We can only know if there is data in the fifo. */
 732:.\Generated_Source\PSoC5/DEBUG_UART.c ****             size = ((DEBUG_UART_RXSTATUS_REG & DEBUG_UART_RX_STS_FIFO_NOTEMPTY) != 0u) ? 1u : 0u;
 733:.\Generated_Source\PSoC5/DEBUG_UART.c **** 
 734:.\Generated_Source\PSoC5/DEBUG_UART.c ****         #endif /* End DEBUG_UART_RXBUFFERSIZE > DEBUG_UART_FIFO_LENGTH */
 735:.\Generated_Source\PSoC5/DEBUG_UART.c **** 
 736:.\Generated_Source\PSoC5/DEBUG_UART.c ****         return(size);
 737:.\Generated_Source\PSoC5/DEBUG_UART.c ****     }
 738:.\Generated_Source\PSoC5/DEBUG_UART.c **** 
 739:.\Generated_Source\PSoC5/DEBUG_UART.c **** 
 740:.\Generated_Source\PSoC5/DEBUG_UART.c ****     /*******************************************************************************
 741:.\Generated_Source\PSoC5/DEBUG_UART.c ****     * Function Name: DEBUG_UART_ClearRxBuffer
 742:.\Generated_Source\PSoC5/DEBUG_UART.c ****     ********************************************************************************
 743:.\Generated_Source\PSoC5/DEBUG_UART.c ****     *
 744:.\Generated_Source\PSoC5/DEBUG_UART.c ****     * Summary:
 745:.\Generated_Source\PSoC5/DEBUG_UART.c ****     *  Clears the RX RAM buffer by setting the read and write pointers both to zero.
 746:.\Generated_Source\PSoC5/DEBUG_UART.c ****     *  Clears hardware RX FIFO.
 747:.\Generated_Source\PSoC5/DEBUG_UART.c ****     *
 748:.\Generated_Source\PSoC5/DEBUG_UART.c ****     * Parameters:
ARM GAS  C:\Users\Mark\AppData\Local\Temp\ccMUWMIC.s 			page 19


 749:.\Generated_Source\PSoC5/DEBUG_UART.c ****     *  None.
 750:.\Generated_Source\PSoC5/DEBUG_UART.c ****     *
 751:.\Generated_Source\PSoC5/DEBUG_UART.c ****     * Return:
 752:.\Generated_Source\PSoC5/DEBUG_UART.c ****     *  None.
 753:.\Generated_Source\PSoC5/DEBUG_UART.c ****     *
 754:.\Generated_Source\PSoC5/DEBUG_UART.c ****     * Global Variables:
 755:.\Generated_Source\PSoC5/DEBUG_UART.c ****     *  DEBUG_UART_rxBufferWrite - cleared to zero.
 756:.\Generated_Source\PSoC5/DEBUG_UART.c ****     *  DEBUG_UART_rxBufferRead - cleared to zero.
 757:.\Generated_Source\PSoC5/DEBUG_UART.c ****     *  DEBUG_UART_rxBufferLoopDetect - cleared to zero.
 758:.\Generated_Source\PSoC5/DEBUG_UART.c ****     *  DEBUG_UART_rxBufferOverflow - cleared to zero.
 759:.\Generated_Source\PSoC5/DEBUG_UART.c ****     *
 760:.\Generated_Source\PSoC5/DEBUG_UART.c ****     * Reentrant:
 761:.\Generated_Source\PSoC5/DEBUG_UART.c ****     *  No.
 762:.\Generated_Source\PSoC5/DEBUG_UART.c ****     *
 763:.\Generated_Source\PSoC5/DEBUG_UART.c ****     * Theory:
 764:.\Generated_Source\PSoC5/DEBUG_UART.c ****     *  Setting the pointers to zero makes the system believe there is no data to
 765:.\Generated_Source\PSoC5/DEBUG_UART.c ****     *  read and writing will resume at address 0 overwriting any data that may
 766:.\Generated_Source\PSoC5/DEBUG_UART.c ****     *  have remained in the RAM.
 767:.\Generated_Source\PSoC5/DEBUG_UART.c ****     *
 768:.\Generated_Source\PSoC5/DEBUG_UART.c ****     * Side Effects:
 769:.\Generated_Source\PSoC5/DEBUG_UART.c ****     *  Any received data not read from the RAM or FIFO buffer will be lost.
 770:.\Generated_Source\PSoC5/DEBUG_UART.c ****     *******************************************************************************/
 771:.\Generated_Source\PSoC5/DEBUG_UART.c ****     void DEBUG_UART_ClearRxBuffer(void) 
 772:.\Generated_Source\PSoC5/DEBUG_UART.c ****     {
 773:.\Generated_Source\PSoC5/DEBUG_UART.c ****         uint8 enableInterrupts;
 774:.\Generated_Source\PSoC5/DEBUG_UART.c **** 
 775:.\Generated_Source\PSoC5/DEBUG_UART.c ****         /* clear the HW FIFO */
 776:.\Generated_Source\PSoC5/DEBUG_UART.c ****         /* Enter critical section */
 777:.\Generated_Source\PSoC5/DEBUG_UART.c ****         enableInterrupts = CyEnterCriticalSection();
 778:.\Generated_Source\PSoC5/DEBUG_UART.c ****         DEBUG_UART_RXDATA_AUX_CTL_REG |=  DEBUG_UART_RX_FIFO_CLR;
 779:.\Generated_Source\PSoC5/DEBUG_UART.c ****         DEBUG_UART_RXDATA_AUX_CTL_REG &= (uint8)~DEBUG_UART_RX_FIFO_CLR;
 780:.\Generated_Source\PSoC5/DEBUG_UART.c ****         /* Exit critical section */
 781:.\Generated_Source\PSoC5/DEBUG_UART.c ****         CyExitCriticalSection(enableInterrupts);
 782:.\Generated_Source\PSoC5/DEBUG_UART.c **** 
 783:.\Generated_Source\PSoC5/DEBUG_UART.c ****         #if(DEBUG_UART_RXBUFFERSIZE > DEBUG_UART_FIFO_LENGTH)
 784:.\Generated_Source\PSoC5/DEBUG_UART.c ****             /* Disable Rx interrupt. */
 785:.\Generated_Source\PSoC5/DEBUG_UART.c ****             /* Protect variables that could change on interrupt. */
 786:.\Generated_Source\PSoC5/DEBUG_UART.c ****             #if(DEBUG_UART_RX_INTERRUPT_ENABLED)
 787:.\Generated_Source\PSoC5/DEBUG_UART.c ****                 DEBUG_UART_DisableRxInt();
 788:.\Generated_Source\PSoC5/DEBUG_UART.c ****             #endif /* End DEBUG_UART_RX_INTERRUPT_ENABLED */
 789:.\Generated_Source\PSoC5/DEBUG_UART.c **** 
 790:.\Generated_Source\PSoC5/DEBUG_UART.c ****             DEBUG_UART_rxBufferRead = 0u;
 791:.\Generated_Source\PSoC5/DEBUG_UART.c ****             DEBUG_UART_rxBufferWrite = 0u;
 792:.\Generated_Source\PSoC5/DEBUG_UART.c ****             DEBUG_UART_rxBufferLoopDetect = 0u;
 793:.\Generated_Source\PSoC5/DEBUG_UART.c ****             DEBUG_UART_rxBufferOverflow = 0u;
 794:.\Generated_Source\PSoC5/DEBUG_UART.c **** 
 795:.\Generated_Source\PSoC5/DEBUG_UART.c ****             /* Enable Rx interrupt. */
 796:.\Generated_Source\PSoC5/DEBUG_UART.c ****             #if(DEBUG_UART_RX_INTERRUPT_ENABLED)
 797:.\Generated_Source\PSoC5/DEBUG_UART.c ****                 DEBUG_UART_EnableRxInt();
 798:.\Generated_Source\PSoC5/DEBUG_UART.c ****             #endif /* End DEBUG_UART_RX_INTERRUPT_ENABLED */
 799:.\Generated_Source\PSoC5/DEBUG_UART.c ****         #endif /* End DEBUG_UART_RXBUFFERSIZE > DEBUG_UART_FIFO_LENGTH */
 800:.\Generated_Source\PSoC5/DEBUG_UART.c **** 
 801:.\Generated_Source\PSoC5/DEBUG_UART.c ****     }
 802:.\Generated_Source\PSoC5/DEBUG_UART.c **** 
 803:.\Generated_Source\PSoC5/DEBUG_UART.c **** 
 804:.\Generated_Source\PSoC5/DEBUG_UART.c ****     /*******************************************************************************
 805:.\Generated_Source\PSoC5/DEBUG_UART.c ****     * Function Name: DEBUG_UART_SetRxAddressMode
ARM GAS  C:\Users\Mark\AppData\Local\Temp\ccMUWMIC.s 			page 20


 806:.\Generated_Source\PSoC5/DEBUG_UART.c ****     ********************************************************************************
 807:.\Generated_Source\PSoC5/DEBUG_UART.c ****     *
 808:.\Generated_Source\PSoC5/DEBUG_UART.c ****     * Summary:
 809:.\Generated_Source\PSoC5/DEBUG_UART.c ****     *  Set the receive addressing mode
 810:.\Generated_Source\PSoC5/DEBUG_UART.c ****     *
 811:.\Generated_Source\PSoC5/DEBUG_UART.c ****     * Parameters:
 812:.\Generated_Source\PSoC5/DEBUG_UART.c ****     *  addressMode: Enumerated value indicating the mode of RX addressing
 813:.\Generated_Source\PSoC5/DEBUG_UART.c ****     *  DEBUG_UART__B_UART__AM_SW_BYTE_BYTE -  Software Byte-by-Byte address
 814:.\Generated_Source\PSoC5/DEBUG_UART.c ****     *                                               detection
 815:.\Generated_Source\PSoC5/DEBUG_UART.c ****     *  DEBUG_UART__B_UART__AM_SW_DETECT_TO_BUFFER - Software Detect to Buffer
 816:.\Generated_Source\PSoC5/DEBUG_UART.c ****     *                                               address detection
 817:.\Generated_Source\PSoC5/DEBUG_UART.c ****     *  DEBUG_UART__B_UART__AM_HW_BYTE_BY_BYTE - Hardware Byte-by-Byte address
 818:.\Generated_Source\PSoC5/DEBUG_UART.c ****     *                                               detection
 819:.\Generated_Source\PSoC5/DEBUG_UART.c ****     *  DEBUG_UART__B_UART__AM_HW_DETECT_TO_BUFFER - Hardware Detect to Buffer
 820:.\Generated_Source\PSoC5/DEBUG_UART.c ****     *                                               address detection
 821:.\Generated_Source\PSoC5/DEBUG_UART.c ****     *  DEBUG_UART__B_UART__AM_NONE - No address detection
 822:.\Generated_Source\PSoC5/DEBUG_UART.c ****     *
 823:.\Generated_Source\PSoC5/DEBUG_UART.c ****     * Return:
 824:.\Generated_Source\PSoC5/DEBUG_UART.c ****     *  None.
 825:.\Generated_Source\PSoC5/DEBUG_UART.c ****     *
 826:.\Generated_Source\PSoC5/DEBUG_UART.c ****     * Global Variables:
 827:.\Generated_Source\PSoC5/DEBUG_UART.c ****     *  DEBUG_UART_rxAddressMode - the parameter stored in this variable for
 828:.\Generated_Source\PSoC5/DEBUG_UART.c ****     *   the farther usage in RX ISR.
 829:.\Generated_Source\PSoC5/DEBUG_UART.c ****     *  DEBUG_UART_rxAddressDetected - set to initial state (0).
 830:.\Generated_Source\PSoC5/DEBUG_UART.c ****     *
 831:.\Generated_Source\PSoC5/DEBUG_UART.c ****     *******************************************************************************/
 832:.\Generated_Source\PSoC5/DEBUG_UART.c ****     void DEBUG_UART_SetRxAddressMode(uint8 addressMode)
 833:.\Generated_Source\PSoC5/DEBUG_UART.c ****                                                         
 834:.\Generated_Source\PSoC5/DEBUG_UART.c ****     {
 835:.\Generated_Source\PSoC5/DEBUG_UART.c ****         #if(DEBUG_UART_RXHW_ADDRESS_ENABLED)
 836:.\Generated_Source\PSoC5/DEBUG_UART.c ****             #if(DEBUG_UART_CONTROL_REG_REMOVED)
 837:.\Generated_Source\PSoC5/DEBUG_UART.c ****                 if(addressMode != 0u) { }     /* release compiler warning */
 838:.\Generated_Source\PSoC5/DEBUG_UART.c ****             #else /* DEBUG_UART_CONTROL_REG_REMOVED */
 839:.\Generated_Source\PSoC5/DEBUG_UART.c ****                 uint8 tmpCtrl;
 840:.\Generated_Source\PSoC5/DEBUG_UART.c ****                 tmpCtrl = DEBUG_UART_CONTROL_REG & (uint8)~DEBUG_UART_CTRL_RXADDR_MODE_MASK;
 841:.\Generated_Source\PSoC5/DEBUG_UART.c ****                 tmpCtrl |= (uint8)(addressMode << DEBUG_UART_CTRL_RXADDR_MODE0_SHIFT);
 842:.\Generated_Source\PSoC5/DEBUG_UART.c ****                 DEBUG_UART_CONTROL_REG = tmpCtrl;
 843:.\Generated_Source\PSoC5/DEBUG_UART.c ****                 #if(DEBUG_UART_RX_INTERRUPT_ENABLED && \
 844:.\Generated_Source\PSoC5/DEBUG_UART.c ****                    (DEBUG_UART_RXBUFFERSIZE > DEBUG_UART_FIFO_LENGTH) )
 845:.\Generated_Source\PSoC5/DEBUG_UART.c ****                     DEBUG_UART_rxAddressMode = addressMode;
 846:.\Generated_Source\PSoC5/DEBUG_UART.c ****                     DEBUG_UART_rxAddressDetected = 0u;
 847:.\Generated_Source\PSoC5/DEBUG_UART.c ****                 #endif /* End DEBUG_UART_RXBUFFERSIZE > DEBUG_UART_FIFO_LENGTH*/
 848:.\Generated_Source\PSoC5/DEBUG_UART.c ****             #endif /* End DEBUG_UART_CONTROL_REG_REMOVED */
 849:.\Generated_Source\PSoC5/DEBUG_UART.c ****         #else /* DEBUG_UART_RXHW_ADDRESS_ENABLED */
 850:.\Generated_Source\PSoC5/DEBUG_UART.c ****             if(addressMode != 0u) { }     /* release compiler warning */
 851:.\Generated_Source\PSoC5/DEBUG_UART.c ****         #endif /* End DEBUG_UART_RXHW_ADDRESS_ENABLED */
 852:.\Generated_Source\PSoC5/DEBUG_UART.c ****     }
 853:.\Generated_Source\PSoC5/DEBUG_UART.c **** 
 854:.\Generated_Source\PSoC5/DEBUG_UART.c **** 
 855:.\Generated_Source\PSoC5/DEBUG_UART.c ****     /*******************************************************************************
 856:.\Generated_Source\PSoC5/DEBUG_UART.c ****     * Function Name: DEBUG_UART_SetRxAddress1
 857:.\Generated_Source\PSoC5/DEBUG_UART.c ****     ********************************************************************************
 858:.\Generated_Source\PSoC5/DEBUG_UART.c ****     *
 859:.\Generated_Source\PSoC5/DEBUG_UART.c ****     * Summary:
 860:.\Generated_Source\PSoC5/DEBUG_UART.c ****     *  Set the first hardware address compare value
 861:.\Generated_Source\PSoC5/DEBUG_UART.c ****     *
 862:.\Generated_Source\PSoC5/DEBUG_UART.c ****     * Parameters:
ARM GAS  C:\Users\Mark\AppData\Local\Temp\ccMUWMIC.s 			page 21


 863:.\Generated_Source\PSoC5/DEBUG_UART.c ****     *  address
 864:.\Generated_Source\PSoC5/DEBUG_UART.c ****     *
 865:.\Generated_Source\PSoC5/DEBUG_UART.c ****     * Return:
 866:.\Generated_Source\PSoC5/DEBUG_UART.c ****     *  None.
 867:.\Generated_Source\PSoC5/DEBUG_UART.c ****     *
 868:.\Generated_Source\PSoC5/DEBUG_UART.c ****     *******************************************************************************/
 869:.\Generated_Source\PSoC5/DEBUG_UART.c ****     void DEBUG_UART_SetRxAddress1(uint8 address) 
 870:.\Generated_Source\PSoC5/DEBUG_UART.c **** 
 871:.\Generated_Source\PSoC5/DEBUG_UART.c ****     {
 872:.\Generated_Source\PSoC5/DEBUG_UART.c ****         DEBUG_UART_RXADDRESS1_REG = address;
 873:.\Generated_Source\PSoC5/DEBUG_UART.c ****     }
 874:.\Generated_Source\PSoC5/DEBUG_UART.c **** 
 875:.\Generated_Source\PSoC5/DEBUG_UART.c **** 
 876:.\Generated_Source\PSoC5/DEBUG_UART.c ****     /*******************************************************************************
 877:.\Generated_Source\PSoC5/DEBUG_UART.c ****     * Function Name: DEBUG_UART_SetRxAddress2
 878:.\Generated_Source\PSoC5/DEBUG_UART.c ****     ********************************************************************************
 879:.\Generated_Source\PSoC5/DEBUG_UART.c ****     *
 880:.\Generated_Source\PSoC5/DEBUG_UART.c ****     * Summary:
 881:.\Generated_Source\PSoC5/DEBUG_UART.c ****     *  Set the second hardware address compare value
 882:.\Generated_Source\PSoC5/DEBUG_UART.c ****     *
 883:.\Generated_Source\PSoC5/DEBUG_UART.c ****     * Parameters:
 884:.\Generated_Source\PSoC5/DEBUG_UART.c ****     *  address
 885:.\Generated_Source\PSoC5/DEBUG_UART.c ****     *
 886:.\Generated_Source\PSoC5/DEBUG_UART.c ****     * Return:
 887:.\Generated_Source\PSoC5/DEBUG_UART.c ****     *  None.
 888:.\Generated_Source\PSoC5/DEBUG_UART.c ****     *
 889:.\Generated_Source\PSoC5/DEBUG_UART.c ****     *******************************************************************************/
 890:.\Generated_Source\PSoC5/DEBUG_UART.c ****     void DEBUG_UART_SetRxAddress2(uint8 address) 
 891:.\Generated_Source\PSoC5/DEBUG_UART.c ****     {
 892:.\Generated_Source\PSoC5/DEBUG_UART.c ****         DEBUG_UART_RXADDRESS2_REG = address;
 893:.\Generated_Source\PSoC5/DEBUG_UART.c ****     }
 894:.\Generated_Source\PSoC5/DEBUG_UART.c **** 
 895:.\Generated_Source\PSoC5/DEBUG_UART.c **** #endif  /* DEBUG_UART_RX_ENABLED || DEBUG_UART_HD_ENABLED*/
 896:.\Generated_Source\PSoC5/DEBUG_UART.c **** 
 897:.\Generated_Source\PSoC5/DEBUG_UART.c **** 
 898:.\Generated_Source\PSoC5/DEBUG_UART.c **** #if( (DEBUG_UART_TX_ENABLED) || (DEBUG_UART_HD_ENABLED) )
 899:.\Generated_Source\PSoC5/DEBUG_UART.c **** 
 900:.\Generated_Source\PSoC5/DEBUG_UART.c ****     #if(DEBUG_UART_TX_INTERRUPT_ENABLED)
 901:.\Generated_Source\PSoC5/DEBUG_UART.c **** 
 902:.\Generated_Source\PSoC5/DEBUG_UART.c ****         /*******************************************************************************
 903:.\Generated_Source\PSoC5/DEBUG_UART.c ****         * Function Name: DEBUG_UART_EnableTxInt
 904:.\Generated_Source\PSoC5/DEBUG_UART.c ****         ********************************************************************************
 905:.\Generated_Source\PSoC5/DEBUG_UART.c ****         *
 906:.\Generated_Source\PSoC5/DEBUG_UART.c ****         * Summary:
 907:.\Generated_Source\PSoC5/DEBUG_UART.c ****         *  Enable TX interrupt generation
 908:.\Generated_Source\PSoC5/DEBUG_UART.c ****         *
 909:.\Generated_Source\PSoC5/DEBUG_UART.c ****         * Parameters:
 910:.\Generated_Source\PSoC5/DEBUG_UART.c ****         *  None.
 911:.\Generated_Source\PSoC5/DEBUG_UART.c ****         *
 912:.\Generated_Source\PSoC5/DEBUG_UART.c ****         * Return:
 913:.\Generated_Source\PSoC5/DEBUG_UART.c ****         *  None.
 914:.\Generated_Source\PSoC5/DEBUG_UART.c ****         *
 915:.\Generated_Source\PSoC5/DEBUG_UART.c ****         * Theory:
 916:.\Generated_Source\PSoC5/DEBUG_UART.c ****         *  Enable the interrupt output -or- the interrupt component itself
 917:.\Generated_Source\PSoC5/DEBUG_UART.c ****         *
 918:.\Generated_Source\PSoC5/DEBUG_UART.c ****         *******************************************************************************/
 919:.\Generated_Source\PSoC5/DEBUG_UART.c ****         void DEBUG_UART_EnableTxInt(void) 
ARM GAS  C:\Users\Mark\AppData\Local\Temp\ccMUWMIC.s 			page 22


 920:.\Generated_Source\PSoC5/DEBUG_UART.c ****         {
 921:.\Generated_Source\PSoC5/DEBUG_UART.c ****             CyIntEnable(DEBUG_UART_TX_VECT_NUM);
 922:.\Generated_Source\PSoC5/DEBUG_UART.c ****         }
 923:.\Generated_Source\PSoC5/DEBUG_UART.c **** 
 924:.\Generated_Source\PSoC5/DEBUG_UART.c **** 
 925:.\Generated_Source\PSoC5/DEBUG_UART.c ****         /*******************************************************************************
 926:.\Generated_Source\PSoC5/DEBUG_UART.c ****         * Function Name: DEBUG_UART_DisableTxInt
 927:.\Generated_Source\PSoC5/DEBUG_UART.c ****         ********************************************************************************
 928:.\Generated_Source\PSoC5/DEBUG_UART.c ****         *
 929:.\Generated_Source\PSoC5/DEBUG_UART.c ****         * Summary:
 930:.\Generated_Source\PSoC5/DEBUG_UART.c ****         *  Disable TX interrupt generation
 931:.\Generated_Source\PSoC5/DEBUG_UART.c ****         *
 932:.\Generated_Source\PSoC5/DEBUG_UART.c ****         * Parameters:
 933:.\Generated_Source\PSoC5/DEBUG_UART.c ****         *  None.
 934:.\Generated_Source\PSoC5/DEBUG_UART.c ****         *
 935:.\Generated_Source\PSoC5/DEBUG_UART.c ****         * Return:
 936:.\Generated_Source\PSoC5/DEBUG_UART.c ****         *  None.
 937:.\Generated_Source\PSoC5/DEBUG_UART.c ****         *
 938:.\Generated_Source\PSoC5/DEBUG_UART.c ****         * Theory:
 939:.\Generated_Source\PSoC5/DEBUG_UART.c ****         *  Disable the interrupt output -or- the interrupt component itself
 940:.\Generated_Source\PSoC5/DEBUG_UART.c ****         *
 941:.\Generated_Source\PSoC5/DEBUG_UART.c ****         *******************************************************************************/
 942:.\Generated_Source\PSoC5/DEBUG_UART.c ****         void DEBUG_UART_DisableTxInt(void) 
 943:.\Generated_Source\PSoC5/DEBUG_UART.c ****         {
 944:.\Generated_Source\PSoC5/DEBUG_UART.c ****             CyIntDisable(DEBUG_UART_TX_VECT_NUM);
 945:.\Generated_Source\PSoC5/DEBUG_UART.c ****         }
 946:.\Generated_Source\PSoC5/DEBUG_UART.c **** 
 947:.\Generated_Source\PSoC5/DEBUG_UART.c ****     #endif /* DEBUG_UART_TX_INTERRUPT_ENABLED */
 948:.\Generated_Source\PSoC5/DEBUG_UART.c **** 
 949:.\Generated_Source\PSoC5/DEBUG_UART.c **** 
 950:.\Generated_Source\PSoC5/DEBUG_UART.c ****     /*******************************************************************************
 951:.\Generated_Source\PSoC5/DEBUG_UART.c ****     * Function Name: DEBUG_UART_SetTxInterruptMode
 952:.\Generated_Source\PSoC5/DEBUG_UART.c ****     ********************************************************************************
 953:.\Generated_Source\PSoC5/DEBUG_UART.c ****     *
 954:.\Generated_Source\PSoC5/DEBUG_UART.c ****     * Summary:
 955:.\Generated_Source\PSoC5/DEBUG_UART.c ****     *  Configure which status bits trigger an interrupt event
 956:.\Generated_Source\PSoC5/DEBUG_UART.c ****     *
 957:.\Generated_Source\PSoC5/DEBUG_UART.c ****     * Parameters:
 958:.\Generated_Source\PSoC5/DEBUG_UART.c ****     *  intSrc: An or'd combination of the desired status bit masks (defined in
 959:.\Generated_Source\PSoC5/DEBUG_UART.c ****     *          the header file)
 960:.\Generated_Source\PSoC5/DEBUG_UART.c ****     *
 961:.\Generated_Source\PSoC5/DEBUG_UART.c ****     * Return:
 962:.\Generated_Source\PSoC5/DEBUG_UART.c ****     *  None.
 963:.\Generated_Source\PSoC5/DEBUG_UART.c ****     *
 964:.\Generated_Source\PSoC5/DEBUG_UART.c ****     * Theory:
 965:.\Generated_Source\PSoC5/DEBUG_UART.c ****     *  Enables the output of specific status bits to the interrupt controller
 966:.\Generated_Source\PSoC5/DEBUG_UART.c ****     *
 967:.\Generated_Source\PSoC5/DEBUG_UART.c ****     *******************************************************************************/
 968:.\Generated_Source\PSoC5/DEBUG_UART.c ****     void DEBUG_UART_SetTxInterruptMode(uint8 intSrc) 
 969:.\Generated_Source\PSoC5/DEBUG_UART.c ****     {
 279              		.loc 1 969 0
 280              		.cfi_startproc
 281              		@ args = 0, pretend = 0, frame = 8
 282              		@ frame_needed = 1, uses_anonymous_args = 0
 283              		@ link register save eliminated.
 284 0000 80B4     		push	{r7}
 285              	.LCFI15:
ARM GAS  C:\Users\Mark\AppData\Local\Temp\ccMUWMIC.s 			page 23


 286              		.cfi_def_cfa_offset 4
 287              		.cfi_offset 7, -4
 288 0002 83B0     		sub	sp, sp, #12
 289              	.LCFI16:
 290              		.cfi_def_cfa_offset 16
 291 0004 00AF     		add	r7, sp, #0
 292              	.LCFI17:
 293              		.cfi_def_cfa_register 7
 294 0006 0346     		mov	r3, r0
 295 0008 FB71     		strb	r3, [r7, #7]
 970:.\Generated_Source\PSoC5/DEBUG_UART.c ****         DEBUG_UART_TXSTATUS_MASK_REG = intSrc;
 296              		.loc 1 970 0
 297 000a 46F28853 		movw	r3, #25992
 298 000e C4F20003 		movt	r3, 16384
 299 0012 FA79     		ldrb	r2, [r7, #7]
 300 0014 1A70     		strb	r2, [r3, #0]
 971:.\Generated_Source\PSoC5/DEBUG_UART.c ****     }
 301              		.loc 1 971 0
 302 0016 07F10C07 		add	r7, r7, #12
 303 001a BD46     		mov	sp, r7
 304 001c 80BC     		pop	{r7}
 305 001e 7047     		bx	lr
 306              		.cfi_endproc
 307              	.LFE6:
 308              		.size	DEBUG_UART_SetTxInterruptMode, .-DEBUG_UART_SetTxInterruptMode
 309              		.section	.text.DEBUG_UART_WriteTxData,"ax",%progbits
 310              		.align	2
 311              		.global	DEBUG_UART_WriteTxData
 312              		.thumb
 313              		.thumb_func
 314              		.type	DEBUG_UART_WriteTxData, %function
 315              	DEBUG_UART_WriteTxData:
 316              	.LFB7:
 972:.\Generated_Source\PSoC5/DEBUG_UART.c **** 
 973:.\Generated_Source\PSoC5/DEBUG_UART.c **** 
 974:.\Generated_Source\PSoC5/DEBUG_UART.c ****     /*******************************************************************************
 975:.\Generated_Source\PSoC5/DEBUG_UART.c ****     * Function Name: DEBUG_UART_WriteTxData
 976:.\Generated_Source\PSoC5/DEBUG_UART.c ****     ********************************************************************************
 977:.\Generated_Source\PSoC5/DEBUG_UART.c ****     *
 978:.\Generated_Source\PSoC5/DEBUG_UART.c ****     * Summary:
 979:.\Generated_Source\PSoC5/DEBUG_UART.c ****     *  Write a byte of data to the Transmit FIFO or TX buffer to be sent when the
 980:.\Generated_Source\PSoC5/DEBUG_UART.c ****     *  bus is available. WriteTxData sends a byte without checking for buffer room
 981:.\Generated_Source\PSoC5/DEBUG_UART.c ****     *  or status. It is up to the user to separately check status.
 982:.\Generated_Source\PSoC5/DEBUG_UART.c ****     *
 983:.\Generated_Source\PSoC5/DEBUG_UART.c ****     * Parameters:
 984:.\Generated_Source\PSoC5/DEBUG_UART.c ****     *  TXDataByte: byte of data to place in the transmit FIFO
 985:.\Generated_Source\PSoC5/DEBUG_UART.c ****     *
 986:.\Generated_Source\PSoC5/DEBUG_UART.c ****     * Return:
 987:.\Generated_Source\PSoC5/DEBUG_UART.c ****     * void
 988:.\Generated_Source\PSoC5/DEBUG_UART.c ****     *
 989:.\Generated_Source\PSoC5/DEBUG_UART.c ****     * Global Variables:
 990:.\Generated_Source\PSoC5/DEBUG_UART.c ****     *  DEBUG_UART_txBuffer - RAM buffer pointer for save data for transmission
 991:.\Generated_Source\PSoC5/DEBUG_UART.c ****     *  DEBUG_UART_txBufferWrite - cyclic index for write to txBuffer,
 992:.\Generated_Source\PSoC5/DEBUG_UART.c ****     *    incremented after each byte saved to buffer.
 993:.\Generated_Source\PSoC5/DEBUG_UART.c ****     *  DEBUG_UART_txBufferRead - cyclic index for read from txBuffer,
 994:.\Generated_Source\PSoC5/DEBUG_UART.c ****     *    checked to identify the condition to write to FIFO directly or to TX buffer
 995:.\Generated_Source\PSoC5/DEBUG_UART.c ****     *  DEBUG_UART_initVar - checked to identify that the component has been
ARM GAS  C:\Users\Mark\AppData\Local\Temp\ccMUWMIC.s 			page 24


 996:.\Generated_Source\PSoC5/DEBUG_UART.c ****     *    initialized.
 997:.\Generated_Source\PSoC5/DEBUG_UART.c ****     *
 998:.\Generated_Source\PSoC5/DEBUG_UART.c ****     * Reentrant:
 999:.\Generated_Source\PSoC5/DEBUG_UART.c ****     *  No.
1000:.\Generated_Source\PSoC5/DEBUG_UART.c ****     *
1001:.\Generated_Source\PSoC5/DEBUG_UART.c ****     *******************************************************************************/
1002:.\Generated_Source\PSoC5/DEBUG_UART.c ****     void DEBUG_UART_WriteTxData(uint8 txDataByte) 
1003:.\Generated_Source\PSoC5/DEBUG_UART.c ****     {
 317              		.loc 1 1003 0
 318              		.cfi_startproc
 319              		@ args = 0, pretend = 0, frame = 8
 320              		@ frame_needed = 1, uses_anonymous_args = 0
 321              		@ link register save eliminated.
 322 0000 80B4     		push	{r7}
 323              	.LCFI18:
 324              		.cfi_def_cfa_offset 4
 325              		.cfi_offset 7, -4
 326 0002 83B0     		sub	sp, sp, #12
 327              	.LCFI19:
 328              		.cfi_def_cfa_offset 16
 329 0004 00AF     		add	r7, sp, #0
 330              	.LCFI20:
 331              		.cfi_def_cfa_register 7
 332 0006 0346     		mov	r3, r0
 333 0008 FB71     		strb	r3, [r7, #7]
1004:.\Generated_Source\PSoC5/DEBUG_UART.c ****         /* If not Initialized then skip this function*/
1005:.\Generated_Source\PSoC5/DEBUG_UART.c ****         if(DEBUG_UART_initVar != 0u)
 334              		.loc 1 1005 0
 335 000a 40F20003 		movw	r3, #:lower16:DEBUG_UART_initVar
 336 000e C0F20003 		movt	r3, #:upper16:DEBUG_UART_initVar
 337 0012 1B78     		ldrb	r3, [r3, #0]	@ zero_extendqisi2
 338 0014 002B     		cmp	r3, #0
 339 0016 05D0     		beq	.L10
1006:.\Generated_Source\PSoC5/DEBUG_UART.c ****         {
1007:.\Generated_Source\PSoC5/DEBUG_UART.c ****             #if(DEBUG_UART_TXBUFFERSIZE > DEBUG_UART_FIFO_LENGTH)
1008:.\Generated_Source\PSoC5/DEBUG_UART.c **** 
1009:.\Generated_Source\PSoC5/DEBUG_UART.c ****                 /* Disable Tx interrupt. */
1010:.\Generated_Source\PSoC5/DEBUG_UART.c ****                 /* Protect variables that could change on interrupt. */
1011:.\Generated_Source\PSoC5/DEBUG_UART.c ****                 #if(DEBUG_UART_TX_INTERRUPT_ENABLED)
1012:.\Generated_Source\PSoC5/DEBUG_UART.c ****                     DEBUG_UART_DisableTxInt();
1013:.\Generated_Source\PSoC5/DEBUG_UART.c ****                 #endif /* End DEBUG_UART_TX_INTERRUPT_ENABLED */
1014:.\Generated_Source\PSoC5/DEBUG_UART.c **** 
1015:.\Generated_Source\PSoC5/DEBUG_UART.c ****                 if( (DEBUG_UART_txBufferRead == DEBUG_UART_txBufferWrite) &&
1016:.\Generated_Source\PSoC5/DEBUG_UART.c ****                     ((DEBUG_UART_TXSTATUS_REG & DEBUG_UART_TX_STS_FIFO_FULL) == 0u) )
1017:.\Generated_Source\PSoC5/DEBUG_UART.c ****                 {
1018:.\Generated_Source\PSoC5/DEBUG_UART.c ****                     /* Add directly to the FIFO. */
1019:.\Generated_Source\PSoC5/DEBUG_UART.c ****                     DEBUG_UART_TXDATA_REG = txDataByte;
1020:.\Generated_Source\PSoC5/DEBUG_UART.c ****                 }
1021:.\Generated_Source\PSoC5/DEBUG_UART.c ****                 else
1022:.\Generated_Source\PSoC5/DEBUG_UART.c ****                 {
1023:.\Generated_Source\PSoC5/DEBUG_UART.c ****                     if(DEBUG_UART_txBufferWrite >= DEBUG_UART_TXBUFFERSIZE)
1024:.\Generated_Source\PSoC5/DEBUG_UART.c ****                     {
1025:.\Generated_Source\PSoC5/DEBUG_UART.c ****                         DEBUG_UART_txBufferWrite = 0u;
1026:.\Generated_Source\PSoC5/DEBUG_UART.c ****                     }
1027:.\Generated_Source\PSoC5/DEBUG_UART.c **** 
1028:.\Generated_Source\PSoC5/DEBUG_UART.c ****                     DEBUG_UART_txBuffer[DEBUG_UART_txBufferWrite] = txDataByte;
1029:.\Generated_Source\PSoC5/DEBUG_UART.c **** 
ARM GAS  C:\Users\Mark\AppData\Local\Temp\ccMUWMIC.s 			page 25


1030:.\Generated_Source\PSoC5/DEBUG_UART.c ****                     /* Add to the software buffer. */
1031:.\Generated_Source\PSoC5/DEBUG_UART.c ****                     DEBUG_UART_txBufferWrite++;
1032:.\Generated_Source\PSoC5/DEBUG_UART.c **** 
1033:.\Generated_Source\PSoC5/DEBUG_UART.c ****                 }
1034:.\Generated_Source\PSoC5/DEBUG_UART.c **** 
1035:.\Generated_Source\PSoC5/DEBUG_UART.c ****                 /* Enable Tx interrupt. */
1036:.\Generated_Source\PSoC5/DEBUG_UART.c ****                 #if(DEBUG_UART_TX_INTERRUPT_ENABLED)
1037:.\Generated_Source\PSoC5/DEBUG_UART.c ****                     DEBUG_UART_EnableTxInt();
1038:.\Generated_Source\PSoC5/DEBUG_UART.c ****                 #endif /* End DEBUG_UART_TX_INTERRUPT_ENABLED */
1039:.\Generated_Source\PSoC5/DEBUG_UART.c **** 
1040:.\Generated_Source\PSoC5/DEBUG_UART.c ****             #else /* DEBUG_UART_TXBUFFERSIZE > DEBUG_UART_FIFO_LENGTH */
1041:.\Generated_Source\PSoC5/DEBUG_UART.c **** 
1042:.\Generated_Source\PSoC5/DEBUG_UART.c ****                 /* Add directly to the FIFO. */
1043:.\Generated_Source\PSoC5/DEBUG_UART.c ****                 DEBUG_UART_TXDATA_REG = txDataByte;
 340              		.loc 1 1043 0
 341 0018 46F24853 		movw	r3, #25928
 342 001c C4F20003 		movt	r3, 16384
 343 0020 FA79     		ldrb	r2, [r7, #7]
 344 0022 1A70     		strb	r2, [r3, #0]
 345              	.L10:
1044:.\Generated_Source\PSoC5/DEBUG_UART.c **** 
1045:.\Generated_Source\PSoC5/DEBUG_UART.c ****             #endif /* End DEBUG_UART_TXBUFFERSIZE > DEBUG_UART_FIFO_LENGTH */
1046:.\Generated_Source\PSoC5/DEBUG_UART.c ****         }
1047:.\Generated_Source\PSoC5/DEBUG_UART.c ****     }
 346              		.loc 1 1047 0
 347 0024 07F10C07 		add	r7, r7, #12
 348 0028 BD46     		mov	sp, r7
 349 002a 80BC     		pop	{r7}
 350 002c 7047     		bx	lr
 351              		.cfi_endproc
 352              	.LFE7:
 353              		.size	DEBUG_UART_WriteTxData, .-DEBUG_UART_WriteTxData
 354 002e 00BF     		.section	.text.DEBUG_UART_ReadTxStatus,"ax",%progbits
 355              		.align	2
 356              		.global	DEBUG_UART_ReadTxStatus
 357              		.thumb
 358              		.thumb_func
 359              		.type	DEBUG_UART_ReadTxStatus, %function
 360              	DEBUG_UART_ReadTxStatus:
 361              	.LFB8:
1048:.\Generated_Source\PSoC5/DEBUG_UART.c **** 
1049:.\Generated_Source\PSoC5/DEBUG_UART.c **** 
1050:.\Generated_Source\PSoC5/DEBUG_UART.c ****     /*******************************************************************************
1051:.\Generated_Source\PSoC5/DEBUG_UART.c ****     * Function Name: DEBUG_UART_ReadTxStatus
1052:.\Generated_Source\PSoC5/DEBUG_UART.c ****     ********************************************************************************
1053:.\Generated_Source\PSoC5/DEBUG_UART.c ****     *
1054:.\Generated_Source\PSoC5/DEBUG_UART.c ****     * Summary:
1055:.\Generated_Source\PSoC5/DEBUG_UART.c ****     *  Read the status register for the component
1056:.\Generated_Source\PSoC5/DEBUG_UART.c ****     *
1057:.\Generated_Source\PSoC5/DEBUG_UART.c ****     * Parameters:
1058:.\Generated_Source\PSoC5/DEBUG_UART.c ****     *  None.
1059:.\Generated_Source\PSoC5/DEBUG_UART.c ****     *
1060:.\Generated_Source\PSoC5/DEBUG_UART.c ****     * Return:
1061:.\Generated_Source\PSoC5/DEBUG_UART.c ****     *  Contents of the status register
1062:.\Generated_Source\PSoC5/DEBUG_UART.c ****     *
1063:.\Generated_Source\PSoC5/DEBUG_UART.c ****     * Theory:
1064:.\Generated_Source\PSoC5/DEBUG_UART.c ****     *  This function reads the status register which is clear on read. It is up to
ARM GAS  C:\Users\Mark\AppData\Local\Temp\ccMUWMIC.s 			page 26


1065:.\Generated_Source\PSoC5/DEBUG_UART.c ****     *  the user to handle all bits in this return value accordingly, even if the bit
1066:.\Generated_Source\PSoC5/DEBUG_UART.c ****     *  was not enabled as an interrupt source the event happened and must be handled
1067:.\Generated_Source\PSoC5/DEBUG_UART.c ****     *  accordingly.
1068:.\Generated_Source\PSoC5/DEBUG_UART.c ****     *
1069:.\Generated_Source\PSoC5/DEBUG_UART.c ****     *******************************************************************************/
1070:.\Generated_Source\PSoC5/DEBUG_UART.c ****     uint8 DEBUG_UART_ReadTxStatus(void) 
1071:.\Generated_Source\PSoC5/DEBUG_UART.c ****     {
 362              		.loc 1 1071 0
 363              		.cfi_startproc
 364              		@ args = 0, pretend = 0, frame = 0
 365              		@ frame_needed = 1, uses_anonymous_args = 0
 366              		@ link register save eliminated.
 367 0000 80B4     		push	{r7}
 368              	.LCFI21:
 369              		.cfi_def_cfa_offset 4
 370              		.cfi_offset 7, -4
 371 0002 00AF     		add	r7, sp, #0
 372              	.LCFI22:
 373              		.cfi_def_cfa_register 7
1072:.\Generated_Source\PSoC5/DEBUG_UART.c ****         return(DEBUG_UART_TXSTATUS_REG);
 374              		.loc 1 1072 0
 375 0004 46F26853 		movw	r3, #25960
 376 0008 C4F20003 		movt	r3, 16384
 377 000c 1B78     		ldrb	r3, [r3, #0]
 378 000e DBB2     		uxtb	r3, r3
1073:.\Generated_Source\PSoC5/DEBUG_UART.c ****     }
 379              		.loc 1 1073 0
 380 0010 1846     		mov	r0, r3
 381 0012 BD46     		mov	sp, r7
 382 0014 80BC     		pop	{r7}
 383 0016 7047     		bx	lr
 384              		.cfi_endproc
 385              	.LFE8:
 386              		.size	DEBUG_UART_ReadTxStatus, .-DEBUG_UART_ReadTxStatus
 387              		.section	.text.DEBUG_UART_PutChar,"ax",%progbits
 388              		.align	2
 389              		.global	DEBUG_UART_PutChar
 390              		.thumb
 391              		.thumb_func
 392              		.type	DEBUG_UART_PutChar, %function
 393              	DEBUG_UART_PutChar:
 394              	.LFB9:
1074:.\Generated_Source\PSoC5/DEBUG_UART.c **** 
1075:.\Generated_Source\PSoC5/DEBUG_UART.c **** 
1076:.\Generated_Source\PSoC5/DEBUG_UART.c ****     /*******************************************************************************
1077:.\Generated_Source\PSoC5/DEBUG_UART.c ****     * Function Name: DEBUG_UART_PutChar
1078:.\Generated_Source\PSoC5/DEBUG_UART.c ****     ********************************************************************************
1079:.\Generated_Source\PSoC5/DEBUG_UART.c ****     *
1080:.\Generated_Source\PSoC5/DEBUG_UART.c ****     * Summary:
1081:.\Generated_Source\PSoC5/DEBUG_UART.c ****     *  Wait to send byte until TX register or buffer has room.
1082:.\Generated_Source\PSoC5/DEBUG_UART.c ****     *
1083:.\Generated_Source\PSoC5/DEBUG_UART.c ****     * Parameters:
1084:.\Generated_Source\PSoC5/DEBUG_UART.c ****     *  txDataByte: The 8-bit data value to send across the UART.
1085:.\Generated_Source\PSoC5/DEBUG_UART.c ****     *
1086:.\Generated_Source\PSoC5/DEBUG_UART.c ****     * Return:
1087:.\Generated_Source\PSoC5/DEBUG_UART.c ****     *  None.
1088:.\Generated_Source\PSoC5/DEBUG_UART.c ****     *
ARM GAS  C:\Users\Mark\AppData\Local\Temp\ccMUWMIC.s 			page 27


1089:.\Generated_Source\PSoC5/DEBUG_UART.c ****     * Global Variables:
1090:.\Generated_Source\PSoC5/DEBUG_UART.c ****     *  DEBUG_UART_txBuffer - RAM buffer pointer for save data for transmission
1091:.\Generated_Source\PSoC5/DEBUG_UART.c ****     *  DEBUG_UART_txBufferWrite - cyclic index for write to txBuffer,
1092:.\Generated_Source\PSoC5/DEBUG_UART.c ****     *     checked to identify free space in txBuffer and incremented after each byte
1093:.\Generated_Source\PSoC5/DEBUG_UART.c ****     *     saved to buffer.
1094:.\Generated_Source\PSoC5/DEBUG_UART.c ****     *  DEBUG_UART_txBufferRead - cyclic index for read from txBuffer,
1095:.\Generated_Source\PSoC5/DEBUG_UART.c ****     *     checked to identify free space in txBuffer.
1096:.\Generated_Source\PSoC5/DEBUG_UART.c ****     *  DEBUG_UART_initVar - checked to identify that the component has been
1097:.\Generated_Source\PSoC5/DEBUG_UART.c ****     *     initialized.
1098:.\Generated_Source\PSoC5/DEBUG_UART.c ****     *
1099:.\Generated_Source\PSoC5/DEBUG_UART.c ****     * Reentrant:
1100:.\Generated_Source\PSoC5/DEBUG_UART.c ****     *  No.
1101:.\Generated_Source\PSoC5/DEBUG_UART.c ****     *
1102:.\Generated_Source\PSoC5/DEBUG_UART.c ****     * Theory:
1103:.\Generated_Source\PSoC5/DEBUG_UART.c ****     *  Allows the user to transmit any byte of data in a single transfer
1104:.\Generated_Source\PSoC5/DEBUG_UART.c ****     *
1105:.\Generated_Source\PSoC5/DEBUG_UART.c ****     *******************************************************************************/
1106:.\Generated_Source\PSoC5/DEBUG_UART.c ****     void DEBUG_UART_PutChar(uint8 txDataByte) 
1107:.\Generated_Source\PSoC5/DEBUG_UART.c ****     {
 395              		.loc 1 1107 0
 396              		.cfi_startproc
 397              		@ args = 0, pretend = 0, frame = 8
 398              		@ frame_needed = 1, uses_anonymous_args = 0
 399              		@ link register save eliminated.
 400 0000 80B4     		push	{r7}
 401              	.LCFI23:
 402              		.cfi_def_cfa_offset 4
 403              		.cfi_offset 7, -4
 404 0002 83B0     		sub	sp, sp, #12
 405              	.LCFI24:
 406              		.cfi_def_cfa_offset 16
 407 0004 00AF     		add	r7, sp, #0
 408              	.LCFI25:
 409              		.cfi_def_cfa_register 7
 410 0006 0346     		mov	r3, r0
 411 0008 FB71     		strb	r3, [r7, #7]
1108:.\Generated_Source\PSoC5/DEBUG_UART.c ****             #if(DEBUG_UART_TXBUFFERSIZE > DEBUG_UART_FIFO_LENGTH)
1109:.\Generated_Source\PSoC5/DEBUG_UART.c ****                 /* The temporary output pointer is used since it takes two instructions
1110:.\Generated_Source\PSoC5/DEBUG_UART.c ****                 *  to increment with a wrap, and we can't risk doing that with the real
1111:.\Generated_Source\PSoC5/DEBUG_UART.c ****                 *  pointer and getting an interrupt in between instructions.
1112:.\Generated_Source\PSoC5/DEBUG_UART.c ****                 */
1113:.\Generated_Source\PSoC5/DEBUG_UART.c ****                 uint8 loc_txBufferWrite;
1114:.\Generated_Source\PSoC5/DEBUG_UART.c ****                 uint8 loc_txBufferRead;
1115:.\Generated_Source\PSoC5/DEBUG_UART.c **** 
1116:.\Generated_Source\PSoC5/DEBUG_UART.c ****                 do{
1117:.\Generated_Source\PSoC5/DEBUG_UART.c ****                     /* Block if software buffer is full, so we don't overwrite. */
1118:.\Generated_Source\PSoC5/DEBUG_UART.c ****                     #if ((DEBUG_UART_TXBUFFERSIZE > DEBUG_UART_MAX_BYTE_VALUE) && (CY_PSOC3))
1119:.\Generated_Source\PSoC5/DEBUG_UART.c ****                         /* Disable TX interrupt to protect variables that could change on interrupt
1120:.\Generated_Source\PSoC5/DEBUG_UART.c ****                         CyIntDisable(DEBUG_UART_TX_VECT_NUM);
1121:.\Generated_Source\PSoC5/DEBUG_UART.c ****                     #endif /* End TXBUFFERSIZE > 255 */
1122:.\Generated_Source\PSoC5/DEBUG_UART.c ****                     loc_txBufferWrite = DEBUG_UART_txBufferWrite;
1123:.\Generated_Source\PSoC5/DEBUG_UART.c ****                     loc_txBufferRead = DEBUG_UART_txBufferRead;
1124:.\Generated_Source\PSoC5/DEBUG_UART.c ****                     #if ((DEBUG_UART_TXBUFFERSIZE > DEBUG_UART_MAX_BYTE_VALUE) && (CY_PSOC3))
1125:.\Generated_Source\PSoC5/DEBUG_UART.c ****                         /* Enable interrupt to continue transmission */
1126:.\Generated_Source\PSoC5/DEBUG_UART.c ****                         CyIntEnable(DEBUG_UART_TX_VECT_NUM);
1127:.\Generated_Source\PSoC5/DEBUG_UART.c ****                     #endif /* End TXBUFFERSIZE > 255 */
1128:.\Generated_Source\PSoC5/DEBUG_UART.c ****                 }while( (loc_txBufferWrite < loc_txBufferRead) ? (loc_txBufferWrite == (loc_txBuffe
ARM GAS  C:\Users\Mark\AppData\Local\Temp\ccMUWMIC.s 			page 28


1129:.\Generated_Source\PSoC5/DEBUG_UART.c ****                                         ((loc_txBufferWrite - loc_txBufferRead) ==
1130:.\Generated_Source\PSoC5/DEBUG_UART.c ****                                         (uint8)(DEBUG_UART_TXBUFFERSIZE - 1u)) );
1131:.\Generated_Source\PSoC5/DEBUG_UART.c **** 
1132:.\Generated_Source\PSoC5/DEBUG_UART.c ****                 if( (loc_txBufferRead == loc_txBufferWrite) &&
1133:.\Generated_Source\PSoC5/DEBUG_UART.c ****                     ((DEBUG_UART_TXSTATUS_REG & DEBUG_UART_TX_STS_FIFO_FULL) == 0u) )
1134:.\Generated_Source\PSoC5/DEBUG_UART.c ****                 {
1135:.\Generated_Source\PSoC5/DEBUG_UART.c ****                     /* Add directly to the FIFO. */
1136:.\Generated_Source\PSoC5/DEBUG_UART.c ****                     DEBUG_UART_TXDATA_REG = txDataByte;
1137:.\Generated_Source\PSoC5/DEBUG_UART.c ****                 }
1138:.\Generated_Source\PSoC5/DEBUG_UART.c ****                 else
1139:.\Generated_Source\PSoC5/DEBUG_UART.c ****                 {
1140:.\Generated_Source\PSoC5/DEBUG_UART.c ****                     if(loc_txBufferWrite >= DEBUG_UART_TXBUFFERSIZE)
1141:.\Generated_Source\PSoC5/DEBUG_UART.c ****                     {
1142:.\Generated_Source\PSoC5/DEBUG_UART.c ****                         loc_txBufferWrite = 0u;
1143:.\Generated_Source\PSoC5/DEBUG_UART.c ****                     }
1144:.\Generated_Source\PSoC5/DEBUG_UART.c ****                     /* Add to the software buffer. */
1145:.\Generated_Source\PSoC5/DEBUG_UART.c ****                     DEBUG_UART_txBuffer[loc_txBufferWrite] = txDataByte;
1146:.\Generated_Source\PSoC5/DEBUG_UART.c ****                     loc_txBufferWrite++;
1147:.\Generated_Source\PSoC5/DEBUG_UART.c **** 
1148:.\Generated_Source\PSoC5/DEBUG_UART.c ****                     /* Finally, update the real output pointer */
1149:.\Generated_Source\PSoC5/DEBUG_UART.c ****                     #if ((DEBUG_UART_TXBUFFERSIZE > DEBUG_UART_MAX_BYTE_VALUE) && (CY_PSOC3))
1150:.\Generated_Source\PSoC5/DEBUG_UART.c ****                         CyIntDisable(DEBUG_UART_TX_VECT_NUM);
1151:.\Generated_Source\PSoC5/DEBUG_UART.c ****                     #endif /* End TXBUFFERSIZE > 255 */
1152:.\Generated_Source\PSoC5/DEBUG_UART.c ****                     DEBUG_UART_txBufferWrite = loc_txBufferWrite;
1153:.\Generated_Source\PSoC5/DEBUG_UART.c ****                     #if ((DEBUG_UART_TXBUFFERSIZE > DEBUG_UART_MAX_BYTE_VALUE) && (CY_PSOC3))
1154:.\Generated_Source\PSoC5/DEBUG_UART.c ****                         CyIntEnable(DEBUG_UART_TX_VECT_NUM);
1155:.\Generated_Source\PSoC5/DEBUG_UART.c ****                     #endif /* End TXBUFFERSIZE > 255 */
1156:.\Generated_Source\PSoC5/DEBUG_UART.c ****                 }
1157:.\Generated_Source\PSoC5/DEBUG_UART.c **** 
1158:.\Generated_Source\PSoC5/DEBUG_UART.c ****             #else /* DEBUG_UART_TXBUFFERSIZE > DEBUG_UART_FIFO_LENGTH */
1159:.\Generated_Source\PSoC5/DEBUG_UART.c **** 
1160:.\Generated_Source\PSoC5/DEBUG_UART.c ****                 while((DEBUG_UART_TXSTATUS_REG & DEBUG_UART_TX_STS_FIFO_FULL) != 0u)
 412              		.loc 1 1160 0
 413 000a 00BF     		nop
 414              	.L15:
 415              		.loc 1 1160 0 is_stmt 0 discriminator 1
 416 000c 46F26853 		movw	r3, #25960
 417 0010 C4F20003 		movt	r3, 16384
 418 0014 1B78     		ldrb	r3, [r3, #0]
 419 0016 DBB2     		uxtb	r3, r3
 420 0018 03F00403 		and	r3, r3, #4
 421 001c 002B     		cmp	r3, #0
 422 001e F5D1     		bne	.L15
1161:.\Generated_Source\PSoC5/DEBUG_UART.c ****                 {
1162:.\Generated_Source\PSoC5/DEBUG_UART.c ****                     ; /* Wait for room in the FIFO. */
1163:.\Generated_Source\PSoC5/DEBUG_UART.c ****                 }
1164:.\Generated_Source\PSoC5/DEBUG_UART.c **** 
1165:.\Generated_Source\PSoC5/DEBUG_UART.c ****                 /* Add directly to the FIFO. */
1166:.\Generated_Source\PSoC5/DEBUG_UART.c ****                 DEBUG_UART_TXDATA_REG = txDataByte;
 423              		.loc 1 1166 0 is_stmt 1
 424 0020 46F24853 		movw	r3, #25928
 425 0024 C4F20003 		movt	r3, 16384
 426 0028 FA79     		ldrb	r2, [r7, #7]
 427 002a 1A70     		strb	r2, [r3, #0]
1167:.\Generated_Source\PSoC5/DEBUG_UART.c **** 
1168:.\Generated_Source\PSoC5/DEBUG_UART.c ****             #endif /* End DEBUG_UART_TXBUFFERSIZE > DEBUG_UART_FIFO_LENGTH */
1169:.\Generated_Source\PSoC5/DEBUG_UART.c ****     }
ARM GAS  C:\Users\Mark\AppData\Local\Temp\ccMUWMIC.s 			page 29


 428              		.loc 1 1169 0
 429 002c 07F10C07 		add	r7, r7, #12
 430 0030 BD46     		mov	sp, r7
 431 0032 80BC     		pop	{r7}
 432 0034 7047     		bx	lr
 433              		.cfi_endproc
 434              	.LFE9:
 435              		.size	DEBUG_UART_PutChar, .-DEBUG_UART_PutChar
 436 0036 00BF     		.section	.text.DEBUG_UART_PutString,"ax",%progbits
 437              		.align	2
 438              		.global	DEBUG_UART_PutString
 439              		.thumb
 440              		.thumb_func
 441              		.type	DEBUG_UART_PutString, %function
 442              	DEBUG_UART_PutString:
 443              	.LFB10:
1170:.\Generated_Source\PSoC5/DEBUG_UART.c **** 
1171:.\Generated_Source\PSoC5/DEBUG_UART.c **** 
1172:.\Generated_Source\PSoC5/DEBUG_UART.c ****     /*******************************************************************************
1173:.\Generated_Source\PSoC5/DEBUG_UART.c ****     * Function Name: DEBUG_UART_PutString
1174:.\Generated_Source\PSoC5/DEBUG_UART.c ****     ********************************************************************************
1175:.\Generated_Source\PSoC5/DEBUG_UART.c ****     *
1176:.\Generated_Source\PSoC5/DEBUG_UART.c ****     * Summary:
1177:.\Generated_Source\PSoC5/DEBUG_UART.c ****     *  Write a Sequence of bytes on the Transmit line. Data comes from RAM or ROM.
1178:.\Generated_Source\PSoC5/DEBUG_UART.c ****     *
1179:.\Generated_Source\PSoC5/DEBUG_UART.c ****     * Parameters:
1180:.\Generated_Source\PSoC5/DEBUG_UART.c ****     *  string: char pointer to character string of Data to Send.
1181:.\Generated_Source\PSoC5/DEBUG_UART.c ****     *
1182:.\Generated_Source\PSoC5/DEBUG_UART.c ****     * Return:
1183:.\Generated_Source\PSoC5/DEBUG_UART.c ****     *  None.
1184:.\Generated_Source\PSoC5/DEBUG_UART.c ****     *
1185:.\Generated_Source\PSoC5/DEBUG_UART.c ****     * Global Variables:
1186:.\Generated_Source\PSoC5/DEBUG_UART.c ****     *  DEBUG_UART_initVar - checked to identify that the component has been
1187:.\Generated_Source\PSoC5/DEBUG_UART.c ****     *     initialized.
1188:.\Generated_Source\PSoC5/DEBUG_UART.c ****     *
1189:.\Generated_Source\PSoC5/DEBUG_UART.c ****     * Reentrant:
1190:.\Generated_Source\PSoC5/DEBUG_UART.c ****     *  No.
1191:.\Generated_Source\PSoC5/DEBUG_UART.c ****     *
1192:.\Generated_Source\PSoC5/DEBUG_UART.c ****     * Theory:
1193:.\Generated_Source\PSoC5/DEBUG_UART.c ****     *  This function will block if there is not enough memory to place the whole
1194:.\Generated_Source\PSoC5/DEBUG_UART.c ****     *  string, it will block until the entire string has been written to the
1195:.\Generated_Source\PSoC5/DEBUG_UART.c ****     *  transmit buffer.
1196:.\Generated_Source\PSoC5/DEBUG_UART.c ****     *
1197:.\Generated_Source\PSoC5/DEBUG_UART.c ****     *******************************************************************************/
1198:.\Generated_Source\PSoC5/DEBUG_UART.c ****     void DEBUG_UART_PutString(const char8 string[]) 
1199:.\Generated_Source\PSoC5/DEBUG_UART.c ****     {
 444              		.loc 1 1199 0
 445              		.cfi_startproc
 446              		@ args = 0, pretend = 0, frame = 16
 447              		@ frame_needed = 1, uses_anonymous_args = 0
 448 0000 80B5     		push	{r7, lr}
 449              	.LCFI26:
 450              		.cfi_def_cfa_offset 8
 451              		.cfi_offset 7, -8
 452              		.cfi_offset 14, -4
 453 0002 84B0     		sub	sp, sp, #16
 454              	.LCFI27:
ARM GAS  C:\Users\Mark\AppData\Local\Temp\ccMUWMIC.s 			page 30


 455              		.cfi_def_cfa_offset 24
 456 0004 00AF     		add	r7, sp, #0
 457              	.LCFI28:
 458              		.cfi_def_cfa_register 7
 459 0006 7860     		str	r0, [r7, #4]
1200:.\Generated_Source\PSoC5/DEBUG_UART.c ****         uint16 buf_index = 0u;
 460              		.loc 1 1200 0
 461 0008 4FF00003 		mov	r3, #0
 462 000c FB81     		strh	r3, [r7, #14]	@ movhi
1201:.\Generated_Source\PSoC5/DEBUG_UART.c ****         /* If not Initialized then skip this function*/
1202:.\Generated_Source\PSoC5/DEBUG_UART.c ****         if(DEBUG_UART_initVar != 0u)
 463              		.loc 1 1202 0
 464 000e 40F20003 		movw	r3, #:lower16:DEBUG_UART_initVar
 465 0012 C0F20003 		movt	r3, #:upper16:DEBUG_UART_initVar
 466 0016 1B78     		ldrb	r3, [r3, #0]	@ zero_extendqisi2
 467 0018 002B     		cmp	r3, #0
 468 001a 11D0     		beq	.L16
1203:.\Generated_Source\PSoC5/DEBUG_UART.c ****         {
1204:.\Generated_Source\PSoC5/DEBUG_UART.c ****             /* This is a blocking function, it will not exit until all data is sent*/
1205:.\Generated_Source\PSoC5/DEBUG_UART.c ****             while(string[buf_index] != (char8)0)
 469              		.loc 1 1205 0
 470 001c 0AE0     		b	.L18
 471              	.L19:
1206:.\Generated_Source\PSoC5/DEBUG_UART.c ****             {
1207:.\Generated_Source\PSoC5/DEBUG_UART.c ****                 DEBUG_UART_PutChar((uint8)string[buf_index]);
 472              		.loc 1 1207 0
 473 001e FB89     		ldrh	r3, [r7, #14]
 474 0020 7A68     		ldr	r2, [r7, #4]
 475 0022 D318     		adds	r3, r2, r3
 476 0024 1B78     		ldrb	r3, [r3, #0]	@ zero_extendqisi2
 477 0026 1846     		mov	r0, r3
 478 0028 FFF7FEFF 		bl	DEBUG_UART_PutChar
1208:.\Generated_Source\PSoC5/DEBUG_UART.c ****                 buf_index++;
 479              		.loc 1 1208 0
 480 002c FB89     		ldrh	r3, [r7, #14]	@ movhi
 481 002e 03F10103 		add	r3, r3, #1
 482 0032 FB81     		strh	r3, [r7, #14]	@ movhi
 483              	.L18:
1205:.\Generated_Source\PSoC5/DEBUG_UART.c ****             while(string[buf_index] != (char8)0)
 484              		.loc 1 1205 0 discriminator 1
 485 0034 FB89     		ldrh	r3, [r7, #14]
 486 0036 7A68     		ldr	r2, [r7, #4]
 487 0038 D318     		adds	r3, r2, r3
 488 003a 1B78     		ldrb	r3, [r3, #0]	@ zero_extendqisi2
 489 003c 002B     		cmp	r3, #0
 490 003e EED1     		bne	.L19
 491              	.L16:
1209:.\Generated_Source\PSoC5/DEBUG_UART.c ****             }
1210:.\Generated_Source\PSoC5/DEBUG_UART.c ****         }
1211:.\Generated_Source\PSoC5/DEBUG_UART.c ****     }
 492              		.loc 1 1211 0
 493 0040 07F11007 		add	r7, r7, #16
 494 0044 BD46     		mov	sp, r7
 495 0046 80BD     		pop	{r7, pc}
 496              		.cfi_endproc
 497              	.LFE10:
 498              		.size	DEBUG_UART_PutString, .-DEBUG_UART_PutString
ARM GAS  C:\Users\Mark\AppData\Local\Temp\ccMUWMIC.s 			page 31


 499              		.section	.text.DEBUG_UART_PutArray,"ax",%progbits
 500              		.align	2
 501              		.global	DEBUG_UART_PutArray
 502              		.thumb
 503              		.thumb_func
 504              		.type	DEBUG_UART_PutArray, %function
 505              	DEBUG_UART_PutArray:
 506              	.LFB11:
1212:.\Generated_Source\PSoC5/DEBUG_UART.c **** 
1213:.\Generated_Source\PSoC5/DEBUG_UART.c **** 
1214:.\Generated_Source\PSoC5/DEBUG_UART.c ****     /*******************************************************************************
1215:.\Generated_Source\PSoC5/DEBUG_UART.c ****     * Function Name: DEBUG_UART_PutArray
1216:.\Generated_Source\PSoC5/DEBUG_UART.c ****     ********************************************************************************
1217:.\Generated_Source\PSoC5/DEBUG_UART.c ****     *
1218:.\Generated_Source\PSoC5/DEBUG_UART.c ****     * Summary:
1219:.\Generated_Source\PSoC5/DEBUG_UART.c ****     *  Write a Sequence of bytes on the Transmit line. Data comes from RAM or ROM.
1220:.\Generated_Source\PSoC5/DEBUG_UART.c ****     *
1221:.\Generated_Source\PSoC5/DEBUG_UART.c ****     * Parameters:
1222:.\Generated_Source\PSoC5/DEBUG_UART.c ****     *  string: Address of the memory array residing in RAM or ROM.
1223:.\Generated_Source\PSoC5/DEBUG_UART.c ****     *  byteCount: Number of Bytes to be transmitted.
1224:.\Generated_Source\PSoC5/DEBUG_UART.c ****     *
1225:.\Generated_Source\PSoC5/DEBUG_UART.c ****     * Return:
1226:.\Generated_Source\PSoC5/DEBUG_UART.c ****     *  None.
1227:.\Generated_Source\PSoC5/DEBUG_UART.c ****     *
1228:.\Generated_Source\PSoC5/DEBUG_UART.c ****     * Global Variables:
1229:.\Generated_Source\PSoC5/DEBUG_UART.c ****     *  DEBUG_UART_initVar - checked to identify that the component has been
1230:.\Generated_Source\PSoC5/DEBUG_UART.c ****     *     initialized.
1231:.\Generated_Source\PSoC5/DEBUG_UART.c ****     *
1232:.\Generated_Source\PSoC5/DEBUG_UART.c ****     * Reentrant:
1233:.\Generated_Source\PSoC5/DEBUG_UART.c ****     *  No.
1234:.\Generated_Source\PSoC5/DEBUG_UART.c ****     *
1235:.\Generated_Source\PSoC5/DEBUG_UART.c ****     *******************************************************************************/
1236:.\Generated_Source\PSoC5/DEBUG_UART.c ****     void DEBUG_UART_PutArray(const uint8 string[], uint8 byteCount)
1237:.\Generated_Source\PSoC5/DEBUG_UART.c ****                                                                     
1238:.\Generated_Source\PSoC5/DEBUG_UART.c ****     {
 507              		.loc 1 1238 0
 508              		.cfi_startproc
 509              		@ args = 0, pretend = 0, frame = 16
 510              		@ frame_needed = 1, uses_anonymous_args = 0
 511 0000 80B5     		push	{r7, lr}
 512              	.LCFI29:
 513              		.cfi_def_cfa_offset 8
 514              		.cfi_offset 7, -8
 515              		.cfi_offset 14, -4
 516 0002 84B0     		sub	sp, sp, #16
 517              	.LCFI30:
 518              		.cfi_def_cfa_offset 24
 519 0004 00AF     		add	r7, sp, #0
 520              	.LCFI31:
 521              		.cfi_def_cfa_register 7
 522 0006 7860     		str	r0, [r7, #4]
 523 0008 0B46     		mov	r3, r1
 524 000a FB70     		strb	r3, [r7, #3]
1239:.\Generated_Source\PSoC5/DEBUG_UART.c ****         uint8 buf_index = 0u;
 525              		.loc 1 1239 0
 526 000c 4FF00003 		mov	r3, #0
 527 0010 FB73     		strb	r3, [r7, #15]
ARM GAS  C:\Users\Mark\AppData\Local\Temp\ccMUWMIC.s 			page 32


1240:.\Generated_Source\PSoC5/DEBUG_UART.c ****         /* If not Initialized then skip this function*/
1241:.\Generated_Source\PSoC5/DEBUG_UART.c ****         if(DEBUG_UART_initVar != 0u)
 528              		.loc 1 1241 0
 529 0012 40F20003 		movw	r3, #:lower16:DEBUG_UART_initVar
 530 0016 C0F20003 		movt	r3, #:upper16:DEBUG_UART_initVar
 531 001a 1B78     		ldrb	r3, [r3, #0]	@ zero_extendqisi2
 532 001c 002B     		cmp	r3, #0
 533 001e 0ED0     		beq	.L20
 534              	.L22:
1242:.\Generated_Source\PSoC5/DEBUG_UART.c ****         {
1243:.\Generated_Source\PSoC5/DEBUG_UART.c ****             do
1244:.\Generated_Source\PSoC5/DEBUG_UART.c ****             {
1245:.\Generated_Source\PSoC5/DEBUG_UART.c ****                 DEBUG_UART_PutChar(string[buf_index]);
 535              		.loc 1 1245 0 discriminator 1
 536 0020 FB7B     		ldrb	r3, [r7, #15]	@ zero_extendqisi2
 537 0022 7A68     		ldr	r2, [r7, #4]
 538 0024 D318     		adds	r3, r2, r3
 539 0026 1B78     		ldrb	r3, [r3, #0]	@ zero_extendqisi2
 540 0028 1846     		mov	r0, r3
 541 002a FFF7FEFF 		bl	DEBUG_UART_PutChar
1246:.\Generated_Source\PSoC5/DEBUG_UART.c ****                 buf_index++;
 542              		.loc 1 1246 0 discriminator 1
 543 002e FB7B     		ldrb	r3, [r7, #15]
 544 0030 03F10103 		add	r3, r3, #1
 545 0034 FB73     		strb	r3, [r7, #15]
1247:.\Generated_Source\PSoC5/DEBUG_UART.c ****             }while(buf_index < byteCount);
 546              		.loc 1 1247 0 discriminator 1
 547 0036 FA7B     		ldrb	r2, [r7, #15]	@ zero_extendqisi2
 548 0038 FB78     		ldrb	r3, [r7, #3]	@ zero_extendqisi2
 549 003a 9A42     		cmp	r2, r3
 550 003c F0D3     		bcc	.L22
 551              	.L20:
1248:.\Generated_Source\PSoC5/DEBUG_UART.c ****         }
1249:.\Generated_Source\PSoC5/DEBUG_UART.c ****     }
 552              		.loc 1 1249 0
 553 003e 07F11007 		add	r7, r7, #16
 554 0042 BD46     		mov	sp, r7
 555 0044 80BD     		pop	{r7, pc}
 556              		.cfi_endproc
 557              	.LFE11:
 558              		.size	DEBUG_UART_PutArray, .-DEBUG_UART_PutArray
 559 0046 00BF     		.section	.text.DEBUG_UART_PutCRLF,"ax",%progbits
 560              		.align	2
 561              		.global	DEBUG_UART_PutCRLF
 562              		.thumb
 563              		.thumb_func
 564              		.type	DEBUG_UART_PutCRLF, %function
 565              	DEBUG_UART_PutCRLF:
 566              	.LFB12:
1250:.\Generated_Source\PSoC5/DEBUG_UART.c **** 
1251:.\Generated_Source\PSoC5/DEBUG_UART.c **** 
1252:.\Generated_Source\PSoC5/DEBUG_UART.c ****     /*******************************************************************************
1253:.\Generated_Source\PSoC5/DEBUG_UART.c ****     * Function Name: DEBUG_UART_PutCRLF
1254:.\Generated_Source\PSoC5/DEBUG_UART.c ****     ********************************************************************************
1255:.\Generated_Source\PSoC5/DEBUG_UART.c ****     *
1256:.\Generated_Source\PSoC5/DEBUG_UART.c ****     * Summary:
1257:.\Generated_Source\PSoC5/DEBUG_UART.c ****     *  Write a character and then carriage return and line feed.
ARM GAS  C:\Users\Mark\AppData\Local\Temp\ccMUWMIC.s 			page 33


1258:.\Generated_Source\PSoC5/DEBUG_UART.c ****     *
1259:.\Generated_Source\PSoC5/DEBUG_UART.c ****     * Parameters:
1260:.\Generated_Source\PSoC5/DEBUG_UART.c ****     *  txDataByte: uint8 Character to send.
1261:.\Generated_Source\PSoC5/DEBUG_UART.c ****     *
1262:.\Generated_Source\PSoC5/DEBUG_UART.c ****     * Return:
1263:.\Generated_Source\PSoC5/DEBUG_UART.c ****     *  None.
1264:.\Generated_Source\PSoC5/DEBUG_UART.c ****     *
1265:.\Generated_Source\PSoC5/DEBUG_UART.c ****     * Global Variables:
1266:.\Generated_Source\PSoC5/DEBUG_UART.c ****     *  DEBUG_UART_initVar - checked to identify that the component has been
1267:.\Generated_Source\PSoC5/DEBUG_UART.c ****     *     initialized.
1268:.\Generated_Source\PSoC5/DEBUG_UART.c ****     *
1269:.\Generated_Source\PSoC5/DEBUG_UART.c ****     * Reentrant:
1270:.\Generated_Source\PSoC5/DEBUG_UART.c ****     *  No.
1271:.\Generated_Source\PSoC5/DEBUG_UART.c ****     *
1272:.\Generated_Source\PSoC5/DEBUG_UART.c ****     *******************************************************************************/
1273:.\Generated_Source\PSoC5/DEBUG_UART.c ****     void DEBUG_UART_PutCRLF(uint8 txDataByte) 
1274:.\Generated_Source\PSoC5/DEBUG_UART.c ****     {
 567              		.loc 1 1274 0
 568              		.cfi_startproc
 569              		@ args = 0, pretend = 0, frame = 8
 570              		@ frame_needed = 1, uses_anonymous_args = 0
 571 0000 80B5     		push	{r7, lr}
 572              	.LCFI32:
 573              		.cfi_def_cfa_offset 8
 574              		.cfi_offset 7, -8
 575              		.cfi_offset 14, -4
 576 0002 82B0     		sub	sp, sp, #8
 577              	.LCFI33:
 578              		.cfi_def_cfa_offset 16
 579 0004 00AF     		add	r7, sp, #0
 580              	.LCFI34:
 581              		.cfi_def_cfa_register 7
 582 0006 0346     		mov	r3, r0
 583 0008 FB71     		strb	r3, [r7, #7]
1275:.\Generated_Source\PSoC5/DEBUG_UART.c ****         /* If not Initialized then skip this function*/
1276:.\Generated_Source\PSoC5/DEBUG_UART.c ****         if(DEBUG_UART_initVar != 0u)
 584              		.loc 1 1276 0
 585 000a 40F20003 		movw	r3, #:lower16:DEBUG_UART_initVar
 586 000e C0F20003 		movt	r3, #:upper16:DEBUG_UART_initVar
 587 0012 1B78     		ldrb	r3, [r3, #0]	@ zero_extendqisi2
 588 0014 002B     		cmp	r3, #0
 589 0016 0BD0     		beq	.L23
1277:.\Generated_Source\PSoC5/DEBUG_UART.c ****         {
1278:.\Generated_Source\PSoC5/DEBUG_UART.c ****             DEBUG_UART_PutChar(txDataByte);
 590              		.loc 1 1278 0
 591 0018 FB79     		ldrb	r3, [r7, #7]	@ zero_extendqisi2
 592 001a 1846     		mov	r0, r3
 593 001c FFF7FEFF 		bl	DEBUG_UART_PutChar
1279:.\Generated_Source\PSoC5/DEBUG_UART.c ****             DEBUG_UART_PutChar(0x0Du);
 594              		.loc 1 1279 0
 595 0020 4FF00D00 		mov	r0, #13
 596 0024 FFF7FEFF 		bl	DEBUG_UART_PutChar
1280:.\Generated_Source\PSoC5/DEBUG_UART.c ****             DEBUG_UART_PutChar(0x0Au);
 597              		.loc 1 1280 0
 598 0028 4FF00A00 		mov	r0, #10
 599 002c FFF7FEFF 		bl	DEBUG_UART_PutChar
 600              	.L23:
ARM GAS  C:\Users\Mark\AppData\Local\Temp\ccMUWMIC.s 			page 34


1281:.\Generated_Source\PSoC5/DEBUG_UART.c ****         }
1282:.\Generated_Source\PSoC5/DEBUG_UART.c ****     }
 601              		.loc 1 1282 0
 602 0030 07F10807 		add	r7, r7, #8
 603 0034 BD46     		mov	sp, r7
 604 0036 80BD     		pop	{r7, pc}
 605              		.cfi_endproc
 606              	.LFE12:
 607              		.size	DEBUG_UART_PutCRLF, .-DEBUG_UART_PutCRLF
 608              		.section	.text.DEBUG_UART_GetTxBufferSize,"ax",%progbits
 609              		.align	2
 610              		.global	DEBUG_UART_GetTxBufferSize
 611              		.thumb
 612              		.thumb_func
 613              		.type	DEBUG_UART_GetTxBufferSize, %function
 614              	DEBUG_UART_GetTxBufferSize:
 615              	.LFB13:
1283:.\Generated_Source\PSoC5/DEBUG_UART.c **** 
1284:.\Generated_Source\PSoC5/DEBUG_UART.c **** 
1285:.\Generated_Source\PSoC5/DEBUG_UART.c ****     /*******************************************************************************
1286:.\Generated_Source\PSoC5/DEBUG_UART.c ****     * Function Name: DEBUG_UART_GetTxBufferSize
1287:.\Generated_Source\PSoC5/DEBUG_UART.c ****     ********************************************************************************
1288:.\Generated_Source\PSoC5/DEBUG_UART.c ****     *
1289:.\Generated_Source\PSoC5/DEBUG_UART.c ****     * Summary:
1290:.\Generated_Source\PSoC5/DEBUG_UART.c ****     *  Determine the amount of space left in the TX buffer and return the count in
1291:.\Generated_Source\PSoC5/DEBUG_UART.c ****     *  bytes
1292:.\Generated_Source\PSoC5/DEBUG_UART.c ****     *
1293:.\Generated_Source\PSoC5/DEBUG_UART.c ****     * Parameters:
1294:.\Generated_Source\PSoC5/DEBUG_UART.c ****     *  None.
1295:.\Generated_Source\PSoC5/DEBUG_UART.c ****     *
1296:.\Generated_Source\PSoC5/DEBUG_UART.c ****     * Return:
1297:.\Generated_Source\PSoC5/DEBUG_UART.c ****     *  Integer count of the number of bytes left in the TX buffer
1298:.\Generated_Source\PSoC5/DEBUG_UART.c ****     *
1299:.\Generated_Source\PSoC5/DEBUG_UART.c ****     * Global Variables:
1300:.\Generated_Source\PSoC5/DEBUG_UART.c ****     *  DEBUG_UART_txBufferWrite - used to calculate left space.
1301:.\Generated_Source\PSoC5/DEBUG_UART.c ****     *  DEBUG_UART_txBufferRead - used to calculate left space.
1302:.\Generated_Source\PSoC5/DEBUG_UART.c ****     *
1303:.\Generated_Source\PSoC5/DEBUG_UART.c ****     * Reentrant:
1304:.\Generated_Source\PSoC5/DEBUG_UART.c ****     *  No.
1305:.\Generated_Source\PSoC5/DEBUG_UART.c ****     *
1306:.\Generated_Source\PSoC5/DEBUG_UART.c ****     * Theory:
1307:.\Generated_Source\PSoC5/DEBUG_UART.c ****     *  Allows the user to find out how full the TX Buffer is.
1308:.\Generated_Source\PSoC5/DEBUG_UART.c ****     *
1309:.\Generated_Source\PSoC5/DEBUG_UART.c ****     *******************************************************************************/
1310:.\Generated_Source\PSoC5/DEBUG_UART.c ****     uint8 DEBUG_UART_GetTxBufferSize(void)
1311:.\Generated_Source\PSoC5/DEBUG_UART.c ****                                                             
1312:.\Generated_Source\PSoC5/DEBUG_UART.c ****     {
 616              		.loc 1 1312 0
 617              		.cfi_startproc
 618              		@ args = 0, pretend = 0, frame = 8
 619              		@ frame_needed = 1, uses_anonymous_args = 0
 620              		@ link register save eliminated.
 621 0000 80B4     		push	{r7}
 622              	.LCFI35:
 623              		.cfi_def_cfa_offset 4
 624              		.cfi_offset 7, -4
 625 0002 83B0     		sub	sp, sp, #12
ARM GAS  C:\Users\Mark\AppData\Local\Temp\ccMUWMIC.s 			page 35


 626              	.LCFI36:
 627              		.cfi_def_cfa_offset 16
 628 0004 00AF     		add	r7, sp, #0
 629              	.LCFI37:
 630              		.cfi_def_cfa_register 7
1313:.\Generated_Source\PSoC5/DEBUG_UART.c ****         uint8 size;
1314:.\Generated_Source\PSoC5/DEBUG_UART.c **** 
1315:.\Generated_Source\PSoC5/DEBUG_UART.c ****         #if(DEBUG_UART_TXBUFFERSIZE > DEBUG_UART_FIFO_LENGTH)
1316:.\Generated_Source\PSoC5/DEBUG_UART.c **** 
1317:.\Generated_Source\PSoC5/DEBUG_UART.c ****             /* Disable Tx interrupt. */
1318:.\Generated_Source\PSoC5/DEBUG_UART.c ****             /* Protect variables that could change on interrupt. */
1319:.\Generated_Source\PSoC5/DEBUG_UART.c ****             #if(DEBUG_UART_TX_INTERRUPT_ENABLED)
1320:.\Generated_Source\PSoC5/DEBUG_UART.c ****                 DEBUG_UART_DisableTxInt();
1321:.\Generated_Source\PSoC5/DEBUG_UART.c ****             #endif /* End DEBUG_UART_TX_INTERRUPT_ENABLED */
1322:.\Generated_Source\PSoC5/DEBUG_UART.c **** 
1323:.\Generated_Source\PSoC5/DEBUG_UART.c ****             if(DEBUG_UART_txBufferRead == DEBUG_UART_txBufferWrite)
1324:.\Generated_Source\PSoC5/DEBUG_UART.c ****             {
1325:.\Generated_Source\PSoC5/DEBUG_UART.c ****                 size = 0u;
1326:.\Generated_Source\PSoC5/DEBUG_UART.c ****             }
1327:.\Generated_Source\PSoC5/DEBUG_UART.c ****             else if(DEBUG_UART_txBufferRead < DEBUG_UART_txBufferWrite)
1328:.\Generated_Source\PSoC5/DEBUG_UART.c ****             {
1329:.\Generated_Source\PSoC5/DEBUG_UART.c ****                 size = (DEBUG_UART_txBufferWrite - DEBUG_UART_txBufferRead);
1330:.\Generated_Source\PSoC5/DEBUG_UART.c ****             }
1331:.\Generated_Source\PSoC5/DEBUG_UART.c ****             else
1332:.\Generated_Source\PSoC5/DEBUG_UART.c ****             {
1333:.\Generated_Source\PSoC5/DEBUG_UART.c ****                 size = (DEBUG_UART_TXBUFFERSIZE - DEBUG_UART_txBufferRead) + DEBUG_UART_txBufferWri
1334:.\Generated_Source\PSoC5/DEBUG_UART.c ****             }
1335:.\Generated_Source\PSoC5/DEBUG_UART.c **** 
1336:.\Generated_Source\PSoC5/DEBUG_UART.c ****             /* Enable Tx interrupt. */
1337:.\Generated_Source\PSoC5/DEBUG_UART.c ****             #if(DEBUG_UART_TX_INTERRUPT_ENABLED)
1338:.\Generated_Source\PSoC5/DEBUG_UART.c ****                 DEBUG_UART_EnableTxInt();
1339:.\Generated_Source\PSoC5/DEBUG_UART.c ****             #endif /* End DEBUG_UART_TX_INTERRUPT_ENABLED */
1340:.\Generated_Source\PSoC5/DEBUG_UART.c **** 
1341:.\Generated_Source\PSoC5/DEBUG_UART.c ****         #else /* DEBUG_UART_TXBUFFERSIZE > DEBUG_UART_FIFO_LENGTH */
1342:.\Generated_Source\PSoC5/DEBUG_UART.c **** 
1343:.\Generated_Source\PSoC5/DEBUG_UART.c ****             size = DEBUG_UART_TXSTATUS_REG;
 631              		.loc 1 1343 0
 632 0006 46F26853 		movw	r3, #25960
 633 000a C4F20003 		movt	r3, 16384
 634 000e 1B78     		ldrb	r3, [r3, #0]
 635 0010 FB71     		strb	r3, [r7, #7]
1344:.\Generated_Source\PSoC5/DEBUG_UART.c **** 
1345:.\Generated_Source\PSoC5/DEBUG_UART.c ****             /* Is the fifo is full. */
1346:.\Generated_Source\PSoC5/DEBUG_UART.c ****             if((size & DEBUG_UART_TX_STS_FIFO_FULL) != 0u)
 636              		.loc 1 1346 0
 637 0012 FB79     		ldrb	r3, [r7, #7]	@ zero_extendqisi2
 638 0014 03F00403 		and	r3, r3, #4
 639 0018 002B     		cmp	r3, #0
 640 001a 03D0     		beq	.L26
1347:.\Generated_Source\PSoC5/DEBUG_UART.c ****             {
1348:.\Generated_Source\PSoC5/DEBUG_UART.c ****                 size = DEBUG_UART_FIFO_LENGTH;
 641              		.loc 1 1348 0
 642 001c 4FF00403 		mov	r3, #4
 643 0020 FB71     		strb	r3, [r7, #7]
 644 0022 0BE0     		b	.L27
 645              	.L26:
1349:.\Generated_Source\PSoC5/DEBUG_UART.c ****             }
ARM GAS  C:\Users\Mark\AppData\Local\Temp\ccMUWMIC.s 			page 36


1350:.\Generated_Source\PSoC5/DEBUG_UART.c ****             else if((size & DEBUG_UART_TX_STS_FIFO_EMPTY) != 0u)
 646              		.loc 1 1350 0
 647 0024 FB79     		ldrb	r3, [r7, #7]	@ zero_extendqisi2
 648 0026 03F00203 		and	r3, r3, #2
 649 002a 002B     		cmp	r3, #0
 650 002c 03D0     		beq	.L28
1351:.\Generated_Source\PSoC5/DEBUG_UART.c ****             {
1352:.\Generated_Source\PSoC5/DEBUG_UART.c ****                 size = 0u;
 651              		.loc 1 1352 0
 652 002e 4FF00003 		mov	r3, #0
 653 0032 FB71     		strb	r3, [r7, #7]
 654 0034 02E0     		b	.L27
 655              	.L28:
1353:.\Generated_Source\PSoC5/DEBUG_UART.c ****             }
1354:.\Generated_Source\PSoC5/DEBUG_UART.c ****             else
1355:.\Generated_Source\PSoC5/DEBUG_UART.c ****             {
1356:.\Generated_Source\PSoC5/DEBUG_UART.c ****                 /* We only know there is data in the fifo. */
1357:.\Generated_Source\PSoC5/DEBUG_UART.c ****                 size = 1u;
 656              		.loc 1 1357 0
 657 0036 4FF00103 		mov	r3, #1
 658 003a FB71     		strb	r3, [r7, #7]
 659              	.L27:
1358:.\Generated_Source\PSoC5/DEBUG_UART.c ****             }
1359:.\Generated_Source\PSoC5/DEBUG_UART.c **** 
1360:.\Generated_Source\PSoC5/DEBUG_UART.c ****         #endif /* End DEBUG_UART_TXBUFFERSIZE > DEBUG_UART_FIFO_LENGTH */
1361:.\Generated_Source\PSoC5/DEBUG_UART.c **** 
1362:.\Generated_Source\PSoC5/DEBUG_UART.c ****         return(size);
 660              		.loc 1 1362 0
 661 003c FB79     		ldrb	r3, [r7, #7]	@ zero_extendqisi2
1363:.\Generated_Source\PSoC5/DEBUG_UART.c ****     }
 662              		.loc 1 1363 0
 663 003e 1846     		mov	r0, r3
 664 0040 07F10C07 		add	r7, r7, #12
 665 0044 BD46     		mov	sp, r7
 666 0046 80BC     		pop	{r7}
 667 0048 7047     		bx	lr
 668              		.cfi_endproc
 669              	.LFE13:
 670              		.size	DEBUG_UART_GetTxBufferSize, .-DEBUG_UART_GetTxBufferSize
 671 004a 00BF     		.section	.text.DEBUG_UART_ClearTxBuffer,"ax",%progbits
 672              		.align	2
 673              		.global	DEBUG_UART_ClearTxBuffer
 674              		.thumb
 675              		.thumb_func
 676              		.type	DEBUG_UART_ClearTxBuffer, %function
 677              	DEBUG_UART_ClearTxBuffer:
 678              	.LFB14:
1364:.\Generated_Source\PSoC5/DEBUG_UART.c **** 
1365:.\Generated_Source\PSoC5/DEBUG_UART.c **** 
1366:.\Generated_Source\PSoC5/DEBUG_UART.c ****     /*******************************************************************************
1367:.\Generated_Source\PSoC5/DEBUG_UART.c ****     * Function Name: DEBUG_UART_ClearTxBuffer
1368:.\Generated_Source\PSoC5/DEBUG_UART.c ****     ********************************************************************************
1369:.\Generated_Source\PSoC5/DEBUG_UART.c ****     *
1370:.\Generated_Source\PSoC5/DEBUG_UART.c ****     * Summary:
1371:.\Generated_Source\PSoC5/DEBUG_UART.c ****     *  Clears the TX RAM buffer by setting the read and write pointers both to zero.
1372:.\Generated_Source\PSoC5/DEBUG_UART.c ****     *  Clears the hardware TX FIFO.  Any data present in the FIFO will not be sent.
1373:.\Generated_Source\PSoC5/DEBUG_UART.c ****     *
ARM GAS  C:\Users\Mark\AppData\Local\Temp\ccMUWMIC.s 			page 37


1374:.\Generated_Source\PSoC5/DEBUG_UART.c ****     * Parameters:
1375:.\Generated_Source\PSoC5/DEBUG_UART.c ****     *  None.
1376:.\Generated_Source\PSoC5/DEBUG_UART.c ****     *
1377:.\Generated_Source\PSoC5/DEBUG_UART.c ****     * Return:
1378:.\Generated_Source\PSoC5/DEBUG_UART.c ****     *  None.
1379:.\Generated_Source\PSoC5/DEBUG_UART.c ****     *
1380:.\Generated_Source\PSoC5/DEBUG_UART.c ****     * Global Variables:
1381:.\Generated_Source\PSoC5/DEBUG_UART.c ****     *  DEBUG_UART_txBufferWrite - cleared to zero.
1382:.\Generated_Source\PSoC5/DEBUG_UART.c ****     *  DEBUG_UART_txBufferRead - cleared to zero.
1383:.\Generated_Source\PSoC5/DEBUG_UART.c ****     *
1384:.\Generated_Source\PSoC5/DEBUG_UART.c ****     * Reentrant:
1385:.\Generated_Source\PSoC5/DEBUG_UART.c ****     *  No.
1386:.\Generated_Source\PSoC5/DEBUG_UART.c ****     *
1387:.\Generated_Source\PSoC5/DEBUG_UART.c ****     * Theory:
1388:.\Generated_Source\PSoC5/DEBUG_UART.c ****     *  Setting the pointers to zero makes the system believe there is no data to
1389:.\Generated_Source\PSoC5/DEBUG_UART.c ****     *  read and writing will resume at address 0 overwriting any data that may have
1390:.\Generated_Source\PSoC5/DEBUG_UART.c ****     *  remained in the RAM.
1391:.\Generated_Source\PSoC5/DEBUG_UART.c ****     *
1392:.\Generated_Source\PSoC5/DEBUG_UART.c ****     * Side Effects:
1393:.\Generated_Source\PSoC5/DEBUG_UART.c ****     *  Any received data not read from the RAM buffer will be lost when overwritten.
1394:.\Generated_Source\PSoC5/DEBUG_UART.c ****     *
1395:.\Generated_Source\PSoC5/DEBUG_UART.c ****     *******************************************************************************/
1396:.\Generated_Source\PSoC5/DEBUG_UART.c ****     void DEBUG_UART_ClearTxBuffer(void) 
1397:.\Generated_Source\PSoC5/DEBUG_UART.c ****     {
 679              		.loc 1 1397 0
 680              		.cfi_startproc
 681              		@ args = 0, pretend = 0, frame = 8
 682              		@ frame_needed = 1, uses_anonymous_args = 0
 683 0000 80B5     		push	{r7, lr}
 684              	.LCFI38:
 685              		.cfi_def_cfa_offset 8
 686              		.cfi_offset 7, -8
 687              		.cfi_offset 14, -4
 688 0002 82B0     		sub	sp, sp, #8
 689              	.LCFI39:
 690              		.cfi_def_cfa_offset 16
 691 0004 00AF     		add	r7, sp, #0
 692              	.LCFI40:
 693              		.cfi_def_cfa_register 7
1398:.\Generated_Source\PSoC5/DEBUG_UART.c ****         uint8 enableInterrupts;
1399:.\Generated_Source\PSoC5/DEBUG_UART.c **** 
1400:.\Generated_Source\PSoC5/DEBUG_UART.c ****         /* Enter critical section */
1401:.\Generated_Source\PSoC5/DEBUG_UART.c ****         enableInterrupts = CyEnterCriticalSection();
 694              		.loc 1 1401 0
 695 0006 FFF7FEFF 		bl	CyEnterCriticalSection
 696 000a 0346     		mov	r3, r0
 697 000c FB71     		strb	r3, [r7, #7]
1402:.\Generated_Source\PSoC5/DEBUG_UART.c ****         /* clear the HW FIFO */
1403:.\Generated_Source\PSoC5/DEBUG_UART.c ****         DEBUG_UART_TXDATA_AUX_CTL_REG |=  DEBUG_UART_TX_FIFO_CLR;
 698              		.loc 1 1403 0
 699 000e 46F29853 		movw	r3, #26008
 700 0012 C4F20003 		movt	r3, 16384
 701 0016 46F29852 		movw	r2, #26008
 702 001a C4F20002 		movt	r2, 16384
 703 001e 1278     		ldrb	r2, [r2, #0]
 704 0020 D2B2     		uxtb	r2, r2
 705 0022 42F00102 		orr	r2, r2, #1
ARM GAS  C:\Users\Mark\AppData\Local\Temp\ccMUWMIC.s 			page 38


 706 0026 D2B2     		uxtb	r2, r2
 707 0028 1A70     		strb	r2, [r3, #0]
1404:.\Generated_Source\PSoC5/DEBUG_UART.c ****         DEBUG_UART_TXDATA_AUX_CTL_REG &= (uint8)~DEBUG_UART_TX_FIFO_CLR;
 708              		.loc 1 1404 0
 709 002a 46F29853 		movw	r3, #26008
 710 002e C4F20003 		movt	r3, 16384
 711 0032 46F29852 		movw	r2, #26008
 712 0036 C4F20002 		movt	r2, 16384
 713 003a 1278     		ldrb	r2, [r2, #0]
 714 003c D2B2     		uxtb	r2, r2
 715 003e 22F00102 		bic	r2, r2, #1
 716 0042 D2B2     		uxtb	r2, r2
 717 0044 1A70     		strb	r2, [r3, #0]
1405:.\Generated_Source\PSoC5/DEBUG_UART.c ****         /* Exit critical section */
1406:.\Generated_Source\PSoC5/DEBUG_UART.c ****         CyExitCriticalSection(enableInterrupts);
 718              		.loc 1 1406 0
 719 0046 FB79     		ldrb	r3, [r7, #7]	@ zero_extendqisi2
 720 0048 1846     		mov	r0, r3
 721 004a FFF7FEFF 		bl	CyExitCriticalSection
1407:.\Generated_Source\PSoC5/DEBUG_UART.c **** 
1408:.\Generated_Source\PSoC5/DEBUG_UART.c ****         #if(DEBUG_UART_TXBUFFERSIZE > DEBUG_UART_FIFO_LENGTH)
1409:.\Generated_Source\PSoC5/DEBUG_UART.c **** 
1410:.\Generated_Source\PSoC5/DEBUG_UART.c ****             /* Disable Tx interrupt. */
1411:.\Generated_Source\PSoC5/DEBUG_UART.c ****             /* Protect variables that could change on interrupt. */
1412:.\Generated_Source\PSoC5/DEBUG_UART.c ****             #if(DEBUG_UART_TX_INTERRUPT_ENABLED)
1413:.\Generated_Source\PSoC5/DEBUG_UART.c ****                 DEBUG_UART_DisableTxInt();
1414:.\Generated_Source\PSoC5/DEBUG_UART.c ****             #endif /* End DEBUG_UART_TX_INTERRUPT_ENABLED */
1415:.\Generated_Source\PSoC5/DEBUG_UART.c **** 
1416:.\Generated_Source\PSoC5/DEBUG_UART.c ****             DEBUG_UART_txBufferRead = 0u;
1417:.\Generated_Source\PSoC5/DEBUG_UART.c ****             DEBUG_UART_txBufferWrite = 0u;
1418:.\Generated_Source\PSoC5/DEBUG_UART.c **** 
1419:.\Generated_Source\PSoC5/DEBUG_UART.c ****             /* Enable Tx interrupt. */
1420:.\Generated_Source\PSoC5/DEBUG_UART.c ****             #if(DEBUG_UART_TX_INTERRUPT_ENABLED)
1421:.\Generated_Source\PSoC5/DEBUG_UART.c ****                 DEBUG_UART_EnableTxInt();
1422:.\Generated_Source\PSoC5/DEBUG_UART.c ****             #endif /* End DEBUG_UART_TX_INTERRUPT_ENABLED */
1423:.\Generated_Source\PSoC5/DEBUG_UART.c **** 
1424:.\Generated_Source\PSoC5/DEBUG_UART.c ****         #endif /* End DEBUG_UART_TXBUFFERSIZE > DEBUG_UART_FIFO_LENGTH */
1425:.\Generated_Source\PSoC5/DEBUG_UART.c ****     }
 722              		.loc 1 1425 0
 723 004e 07F10807 		add	r7, r7, #8
 724 0052 BD46     		mov	sp, r7
 725 0054 80BD     		pop	{r7, pc}
 726              		.cfi_endproc
 727              	.LFE14:
 728              		.size	DEBUG_UART_ClearTxBuffer, .-DEBUG_UART_ClearTxBuffer
 729 0056 00BF     		.section	.text.DEBUG_UART_SendBreak,"ax",%progbits
 730              		.align	2
 731              		.global	DEBUG_UART_SendBreak
 732              		.thumb
 733              		.thumb_func
 734              		.type	DEBUG_UART_SendBreak, %function
 735              	DEBUG_UART_SendBreak:
 736              	.LFB15:
1426:.\Generated_Source\PSoC5/DEBUG_UART.c **** 
1427:.\Generated_Source\PSoC5/DEBUG_UART.c **** 
1428:.\Generated_Source\PSoC5/DEBUG_UART.c ****     /*******************************************************************************
1429:.\Generated_Source\PSoC5/DEBUG_UART.c ****     * Function Name: DEBUG_UART_SendBreak
ARM GAS  C:\Users\Mark\AppData\Local\Temp\ccMUWMIC.s 			page 39


1430:.\Generated_Source\PSoC5/DEBUG_UART.c ****     ********************************************************************************
1431:.\Generated_Source\PSoC5/DEBUG_UART.c ****     *
1432:.\Generated_Source\PSoC5/DEBUG_UART.c ****     * Summary:
1433:.\Generated_Source\PSoC5/DEBUG_UART.c ****     *  Write a Break command to the UART
1434:.\Generated_Source\PSoC5/DEBUG_UART.c ****     *
1435:.\Generated_Source\PSoC5/DEBUG_UART.c ****     * Parameters:
1436:.\Generated_Source\PSoC5/DEBUG_UART.c ****     *  uint8 retMode:  Wait mode,
1437:.\Generated_Source\PSoC5/DEBUG_UART.c ****     *   0 - Initialize registers for Break, sends the Break signal and return
1438:.\Generated_Source\PSoC5/DEBUG_UART.c ****     *       imediately.
1439:.\Generated_Source\PSoC5/DEBUG_UART.c ****     *   1 - Wait until Break sending is complete, reinitialize registers to normal
1440:.\Generated_Source\PSoC5/DEBUG_UART.c ****     *       transmission mode then return.
1441:.\Generated_Source\PSoC5/DEBUG_UART.c ****     *   2 - Reinitialize registers to normal transmission mode then return.
1442:.\Generated_Source\PSoC5/DEBUG_UART.c ****     *   3 - both steps: 0 and 1
1443:.\Generated_Source\PSoC5/DEBUG_UART.c ****     *       init registers for Break, send Break signal
1444:.\Generated_Source\PSoC5/DEBUG_UART.c ****     *       wait until Break sending is complete, reinit registers to normal
1445:.\Generated_Source\PSoC5/DEBUG_UART.c ****     *       transmission mode then return.
1446:.\Generated_Source\PSoC5/DEBUG_UART.c ****     *
1447:.\Generated_Source\PSoC5/DEBUG_UART.c ****     * Return:
1448:.\Generated_Source\PSoC5/DEBUG_UART.c ****     *  None.
1449:.\Generated_Source\PSoC5/DEBUG_UART.c ****     *
1450:.\Generated_Source\PSoC5/DEBUG_UART.c ****     * Global Variables:
1451:.\Generated_Source\PSoC5/DEBUG_UART.c ****     *  DEBUG_UART_initVar - checked to identify that the component has been
1452:.\Generated_Source\PSoC5/DEBUG_UART.c ****     *     initialized.
1453:.\Generated_Source\PSoC5/DEBUG_UART.c ****     *  tx_period - static variable, used for keeping TX period configuration.
1454:.\Generated_Source\PSoC5/DEBUG_UART.c ****     *
1455:.\Generated_Source\PSoC5/DEBUG_UART.c ****     * Reentrant:
1456:.\Generated_Source\PSoC5/DEBUG_UART.c ****     *  No.
1457:.\Generated_Source\PSoC5/DEBUG_UART.c ****     *
1458:.\Generated_Source\PSoC5/DEBUG_UART.c ****     * Theory:
1459:.\Generated_Source\PSoC5/DEBUG_UART.c ****     *  SendBreak function initializes registers to send 13-bit break signal. It is
1460:.\Generated_Source\PSoC5/DEBUG_UART.c ****     *  important to return the registers configuration to normal for continue 8-bit
1461:.\Generated_Source\PSoC5/DEBUG_UART.c ****     *  operation.
1462:.\Generated_Source\PSoC5/DEBUG_UART.c ****     *  Trere are 3 variants for this API usage:
1463:.\Generated_Source\PSoC5/DEBUG_UART.c ****     *  1) SendBreak(3) - function will send the Break signal and take care on the
1464:.\Generated_Source\PSoC5/DEBUG_UART.c ****     *     configuration returning. Funcition will block CPU untill transmition
1465:.\Generated_Source\PSoC5/DEBUG_UART.c ****     *     complete.
1466:.\Generated_Source\PSoC5/DEBUG_UART.c ****     *  2) User may want to use bloking time if UART configured to the low speed
1467:.\Generated_Source\PSoC5/DEBUG_UART.c ****     *     operation
1468:.\Generated_Source\PSoC5/DEBUG_UART.c ****     *     Emample for this case:
1469:.\Generated_Source\PSoC5/DEBUG_UART.c ****     *     SendBreak(0);     - init Break signal transmition
1470:.\Generated_Source\PSoC5/DEBUG_UART.c ****     *         Add your code here to use CPU time
1471:.\Generated_Source\PSoC5/DEBUG_UART.c ****     *     SendBreak(1);     - complete Break operation
1472:.\Generated_Source\PSoC5/DEBUG_UART.c ****     *  3) Same to 2) but user may want to init and use the interrupt for complete
1473:.\Generated_Source\PSoC5/DEBUG_UART.c ****     *     break operation.
1474:.\Generated_Source\PSoC5/DEBUG_UART.c ****     *     Example for this case:
1475:.\Generated_Source\PSoC5/DEBUG_UART.c ****     *     Init TX interrupt whith "TX - On TX Complete" parameter
1476:.\Generated_Source\PSoC5/DEBUG_UART.c ****     *     SendBreak(0);     - init Break signal transmition
1477:.\Generated_Source\PSoC5/DEBUG_UART.c ****     *         Add your code here to use CPU time
1478:.\Generated_Source\PSoC5/DEBUG_UART.c ****     *     When interrupt appear with UART_TX_STS_COMPLETE status:
1479:.\Generated_Source\PSoC5/DEBUG_UART.c ****     *     SendBreak(2);     - complete Break operation
1480:.\Generated_Source\PSoC5/DEBUG_UART.c ****     *
1481:.\Generated_Source\PSoC5/DEBUG_UART.c ****     * Side Effects:
1482:.\Generated_Source\PSoC5/DEBUG_UART.c ****     *   Uses static variable to keep registers configuration.
1483:.\Generated_Source\PSoC5/DEBUG_UART.c ****     *
1484:.\Generated_Source\PSoC5/DEBUG_UART.c ****     *******************************************************************************/
1485:.\Generated_Source\PSoC5/DEBUG_UART.c ****     void DEBUG_UART_SendBreak(uint8 retMode) 
1486:.\Generated_Source\PSoC5/DEBUG_UART.c ****     {
ARM GAS  C:\Users\Mark\AppData\Local\Temp\ccMUWMIC.s 			page 40


 737              		.loc 1 1486 0
 738              		.cfi_startproc
 739              		@ args = 0, pretend = 0, frame = 16
 740              		@ frame_needed = 1, uses_anonymous_args = 0
 741              		@ link register save eliminated.
 742 0000 80B4     		push	{r7}
 743              	.LCFI41:
 744              		.cfi_def_cfa_offset 4
 745              		.cfi_offset 7, -4
 746 0002 85B0     		sub	sp, sp, #20
 747              	.LCFI42:
 748              		.cfi_def_cfa_offset 24
 749 0004 00AF     		add	r7, sp, #0
 750              	.LCFI43:
 751              		.cfi_def_cfa_register 7
 752 0006 0346     		mov	r3, r0
 753 0008 FB71     		strb	r3, [r7, #7]
1487:.\Generated_Source\PSoC5/DEBUG_UART.c **** 
1488:.\Generated_Source\PSoC5/DEBUG_UART.c ****         /* If not Initialized then skip this function*/
1489:.\Generated_Source\PSoC5/DEBUG_UART.c ****         if(DEBUG_UART_initVar != 0u)
 754              		.loc 1 1489 0
 755 000a 40F20003 		movw	r3, #:lower16:DEBUG_UART_initVar
 756 000e C0F20003 		movt	r3, #:upper16:DEBUG_UART_initVar
 757 0012 1B78     		ldrb	r3, [r3, #0]	@ zero_extendqisi2
 758 0014 002B     		cmp	r3, #0
 759 0016 50D0     		beq	.L31
 760              	.LBB2:
1490:.\Generated_Source\PSoC5/DEBUG_UART.c ****         {
1491:.\Generated_Source\PSoC5/DEBUG_UART.c ****             /*Set the Counter to 13-bits and transmit a 00 byte*/
1492:.\Generated_Source\PSoC5/DEBUG_UART.c ****             /*When that is done then reset the counter value back*/
1493:.\Generated_Source\PSoC5/DEBUG_UART.c ****             uint8 tmpStat;
1494:.\Generated_Source\PSoC5/DEBUG_UART.c **** 
1495:.\Generated_Source\PSoC5/DEBUG_UART.c ****             #if(DEBUG_UART_HD_ENABLED) /* Half Duplex mode*/
1496:.\Generated_Source\PSoC5/DEBUG_UART.c **** 
1497:.\Generated_Source\PSoC5/DEBUG_UART.c ****                 if( (retMode == DEBUG_UART_SEND_BREAK) ||
1498:.\Generated_Source\PSoC5/DEBUG_UART.c ****                     (retMode == DEBUG_UART_SEND_WAIT_REINIT ) )
1499:.\Generated_Source\PSoC5/DEBUG_UART.c ****                 {
1500:.\Generated_Source\PSoC5/DEBUG_UART.c ****                     /* CTRL_HD_SEND_BREAK - sends break bits in HD mode*/
1501:.\Generated_Source\PSoC5/DEBUG_UART.c ****                     DEBUG_UART_WriteControlRegister(DEBUG_UART_ReadControlRegister() |
1502:.\Generated_Source\PSoC5/DEBUG_UART.c ****                                                           DEBUG_UART_CTRL_HD_SEND_BREAK);
1503:.\Generated_Source\PSoC5/DEBUG_UART.c ****                     /* Send zeros*/
1504:.\Generated_Source\PSoC5/DEBUG_UART.c ****                     DEBUG_UART_TXDATA_REG = 0u;
1505:.\Generated_Source\PSoC5/DEBUG_UART.c **** 
1506:.\Generated_Source\PSoC5/DEBUG_UART.c ****                     do /*wait until transmit starts*/
1507:.\Generated_Source\PSoC5/DEBUG_UART.c ****                     {
1508:.\Generated_Source\PSoC5/DEBUG_UART.c ****                         tmpStat = DEBUG_UART_TXSTATUS_REG;
1509:.\Generated_Source\PSoC5/DEBUG_UART.c ****                     }while((tmpStat & DEBUG_UART_TX_STS_FIFO_EMPTY) != 0u);
1510:.\Generated_Source\PSoC5/DEBUG_UART.c ****                 }
1511:.\Generated_Source\PSoC5/DEBUG_UART.c **** 
1512:.\Generated_Source\PSoC5/DEBUG_UART.c ****                 if( (retMode == DEBUG_UART_WAIT_FOR_COMPLETE_REINIT) ||
1513:.\Generated_Source\PSoC5/DEBUG_UART.c ****                     (retMode == DEBUG_UART_SEND_WAIT_REINIT) )
1514:.\Generated_Source\PSoC5/DEBUG_UART.c ****                 {
1515:.\Generated_Source\PSoC5/DEBUG_UART.c ****                     do /*wait until transmit complete*/
1516:.\Generated_Source\PSoC5/DEBUG_UART.c ****                     {
1517:.\Generated_Source\PSoC5/DEBUG_UART.c ****                         tmpStat = DEBUG_UART_TXSTATUS_REG;
1518:.\Generated_Source\PSoC5/DEBUG_UART.c ****                     }while(((uint8)~tmpStat & DEBUG_UART_TX_STS_COMPLETE) != 0u);
1519:.\Generated_Source\PSoC5/DEBUG_UART.c ****                 }
ARM GAS  C:\Users\Mark\AppData\Local\Temp\ccMUWMIC.s 			page 41


1520:.\Generated_Source\PSoC5/DEBUG_UART.c **** 
1521:.\Generated_Source\PSoC5/DEBUG_UART.c ****                 if( (retMode == DEBUG_UART_WAIT_FOR_COMPLETE_REINIT) ||
1522:.\Generated_Source\PSoC5/DEBUG_UART.c ****                     (retMode == DEBUG_UART_REINIT) ||
1523:.\Generated_Source\PSoC5/DEBUG_UART.c ****                     (retMode == DEBUG_UART_SEND_WAIT_REINIT) )
1524:.\Generated_Source\PSoC5/DEBUG_UART.c ****                 {
1525:.\Generated_Source\PSoC5/DEBUG_UART.c ****                     DEBUG_UART_WriteControlRegister(DEBUG_UART_ReadControlRegister() &
1526:.\Generated_Source\PSoC5/DEBUG_UART.c ****                                                   (uint8)~DEBUG_UART_CTRL_HD_SEND_BREAK);
1527:.\Generated_Source\PSoC5/DEBUG_UART.c ****                 }
1528:.\Generated_Source\PSoC5/DEBUG_UART.c **** 
1529:.\Generated_Source\PSoC5/DEBUG_UART.c ****             #else /* DEBUG_UART_HD_ENABLED Full Duplex mode */
1530:.\Generated_Source\PSoC5/DEBUG_UART.c **** 
1531:.\Generated_Source\PSoC5/DEBUG_UART.c ****                 static uint8 tx_period;
1532:.\Generated_Source\PSoC5/DEBUG_UART.c **** 
1533:.\Generated_Source\PSoC5/DEBUG_UART.c ****                 if( (retMode == DEBUG_UART_SEND_BREAK) ||
 761              		.loc 1 1533 0
 762 0018 FB79     		ldrb	r3, [r7, #7]	@ zero_extendqisi2
 763 001a 002B     		cmp	r3, #0
 764 001c 02D0     		beq	.L33
 765              		.loc 1 1533 0 is_stmt 0 discriminator 1
 766 001e FB79     		ldrb	r3, [r7, #7]	@ zero_extendqisi2
 767 0020 032B     		cmp	r3, #3
 768 0022 23D1     		bne	.L34
 769              	.L33:
1534:.\Generated_Source\PSoC5/DEBUG_UART.c ****                     (retMode == DEBUG_UART_SEND_WAIT_REINIT) )
1535:.\Generated_Source\PSoC5/DEBUG_UART.c ****                 {
1536:.\Generated_Source\PSoC5/DEBUG_UART.c ****                     /* CTRL_HD_SEND_BREAK - skip to send parity bit at Break signal in Full Duplex 
1537:.\Generated_Source\PSoC5/DEBUG_UART.c ****                     #if( (DEBUG_UART_PARITY_TYPE != DEBUG_UART__B_UART__NONE_REVB) || \
1538:.\Generated_Source\PSoC5/DEBUG_UART.c ****                                         (DEBUG_UART_PARITY_TYPE_SW != 0u) )
1539:.\Generated_Source\PSoC5/DEBUG_UART.c ****                         DEBUG_UART_WriteControlRegister(DEBUG_UART_ReadControlRegister() |
1540:.\Generated_Source\PSoC5/DEBUG_UART.c ****                                                               DEBUG_UART_CTRL_HD_SEND_BREAK);
1541:.\Generated_Source\PSoC5/DEBUG_UART.c ****                     #endif /* End DEBUG_UART_PARITY_TYPE != DEBUG_UART__B_UART__NONE_REVB  */
1542:.\Generated_Source\PSoC5/DEBUG_UART.c **** 
1543:.\Generated_Source\PSoC5/DEBUG_UART.c ****                     #if(DEBUG_UART_TXCLKGEN_DP)
1544:.\Generated_Source\PSoC5/DEBUG_UART.c ****                         tx_period = DEBUG_UART_TXBITCLKTX_COMPLETE_REG;
 770              		.loc 1 1544 0 is_stmt 1
 771 0024 46F23443 		movw	r3, #25652
 772 0028 C4F20003 		movt	r3, 16384
 773 002c 1B78     		ldrb	r3, [r3, #0]
 774 002e DAB2     		uxtb	r2, r3
 775 0030 40F20003 		movw	r3, #:lower16:tx_period.4861
 776 0034 C0F20003 		movt	r3, #:upper16:tx_period.4861
 777 0038 1A70     		strb	r2, [r3, #0]
1545:.\Generated_Source\PSoC5/DEBUG_UART.c ****                         DEBUG_UART_TXBITCLKTX_COMPLETE_REG = DEBUG_UART_TXBITCTR_BREAKBITS;
 778              		.loc 1 1545 0
 779 003a 46F23443 		movw	r3, #25652
 780 003e C4F20003 		movt	r3, 16384
 781 0042 4FF06702 		mov	r2, #103
 782 0046 1A70     		strb	r2, [r3, #0]
1546:.\Generated_Source\PSoC5/DEBUG_UART.c ****                     #else
1547:.\Generated_Source\PSoC5/DEBUG_UART.c ****                         tx_period = DEBUG_UART_TXBITCTR_PERIOD_REG;
1548:.\Generated_Source\PSoC5/DEBUG_UART.c ****                         DEBUG_UART_TXBITCTR_PERIOD_REG = DEBUG_UART_TXBITCTR_BREAKBITS8X;
1549:.\Generated_Source\PSoC5/DEBUG_UART.c ****                     #endif /* End DEBUG_UART_TXCLKGEN_DP */
1550:.\Generated_Source\PSoC5/DEBUG_UART.c **** 
1551:.\Generated_Source\PSoC5/DEBUG_UART.c ****                     /* Send zeros*/
1552:.\Generated_Source\PSoC5/DEBUG_UART.c ****                     DEBUG_UART_TXDATA_REG = 0u;
 783              		.loc 1 1552 0
 784 0048 46F24853 		movw	r3, #25928
ARM GAS  C:\Users\Mark\AppData\Local\Temp\ccMUWMIC.s 			page 42


 785 004c C4F20003 		movt	r3, 16384
 786 0050 4FF00002 		mov	r2, #0
 787 0054 1A70     		strb	r2, [r3, #0]
 788              	.L35:
1553:.\Generated_Source\PSoC5/DEBUG_UART.c **** 
1554:.\Generated_Source\PSoC5/DEBUG_UART.c ****                     do /* wait until transmit starts */
1555:.\Generated_Source\PSoC5/DEBUG_UART.c ****                     {
1556:.\Generated_Source\PSoC5/DEBUG_UART.c ****                         tmpStat = DEBUG_UART_TXSTATUS_REG;
 789              		.loc 1 1556 0 discriminator 1
 790 0056 46F26853 		movw	r3, #25960
 791 005a C4F20003 		movt	r3, 16384
 792 005e 1B78     		ldrb	r3, [r3, #0]
 793 0060 FB73     		strb	r3, [r7, #15]
1557:.\Generated_Source\PSoC5/DEBUG_UART.c ****                     }while((tmpStat & DEBUG_UART_TX_STS_FIFO_EMPTY) != 0u);
 794              		.loc 1 1557 0 discriminator 1
 795 0062 FB7B     		ldrb	r3, [r7, #15]	@ zero_extendqisi2
 796 0064 03F00203 		and	r3, r3, #2
 797 0068 002B     		cmp	r3, #0
 798 006a F4D1     		bne	.L35
 799              	.L34:
1558:.\Generated_Source\PSoC5/DEBUG_UART.c ****                 }
1559:.\Generated_Source\PSoC5/DEBUG_UART.c **** 
1560:.\Generated_Source\PSoC5/DEBUG_UART.c ****                 if( (retMode == DEBUG_UART_WAIT_FOR_COMPLETE_REINIT) ||
 800              		.loc 1 1560 0
 801 006c FB79     		ldrb	r3, [r7, #7]	@ zero_extendqisi2
 802 006e 012B     		cmp	r3, #1
 803 0070 02D0     		beq	.L36
 804              		.loc 1 1560 0 is_stmt 0 discriminator 1
 805 0072 FB79     		ldrb	r3, [r7, #7]	@ zero_extendqisi2
 806 0074 032B     		cmp	r3, #3
 807 0076 0DD1     		bne	.L37
 808              	.L36:
1561:.\Generated_Source\PSoC5/DEBUG_UART.c ****                     (retMode == DEBUG_UART_SEND_WAIT_REINIT) )
1562:.\Generated_Source\PSoC5/DEBUG_UART.c ****                 {
1563:.\Generated_Source\PSoC5/DEBUG_UART.c ****                     do /*wait until transmit complete*/
1564:.\Generated_Source\PSoC5/DEBUG_UART.c ****                     {
1565:.\Generated_Source\PSoC5/DEBUG_UART.c ****                         tmpStat = DEBUG_UART_TXSTATUS_REG;
 809              		.loc 1 1565 0 is_stmt 1 discriminator 1
 810 0078 46F26853 		movw	r3, #25960
 811 007c C4F20003 		movt	r3, 16384
 812 0080 1B78     		ldrb	r3, [r3, #0]
 813 0082 FB73     		strb	r3, [r7, #15]
1566:.\Generated_Source\PSoC5/DEBUG_UART.c ****                     }while(((uint8)~tmpStat & DEBUG_UART_TX_STS_COMPLETE) != 0u);
 814              		.loc 1 1566 0 discriminator 1
 815 0084 FB7B     		ldrb	r3, [r7, #15]
 816 0086 6FEA0303 		mvn	r3, r3
 817 008a DBB2     		uxtb	r3, r3
 818 008c 03F00103 		and	r3, r3, #1
 819 0090 002B     		cmp	r3, #0
 820 0092 F1D1     		bne	.L36
 821              	.L37:
1567:.\Generated_Source\PSoC5/DEBUG_UART.c ****                 }
1568:.\Generated_Source\PSoC5/DEBUG_UART.c **** 
1569:.\Generated_Source\PSoC5/DEBUG_UART.c ****                 if( (retMode == DEBUG_UART_WAIT_FOR_COMPLETE_REINIT) ||
 822              		.loc 1 1569 0
 823 0094 FB79     		ldrb	r3, [r7, #7]	@ zero_extendqisi2
 824 0096 012B     		cmp	r3, #1
ARM GAS  C:\Users\Mark\AppData\Local\Temp\ccMUWMIC.s 			page 43


 825 0098 05D0     		beq	.L38
 826              		.loc 1 1569 0 is_stmt 0 discriminator 1
 827 009a FB79     		ldrb	r3, [r7, #7]	@ zero_extendqisi2
 828 009c 022B     		cmp	r3, #2
 829 009e 02D0     		beq	.L38
1570:.\Generated_Source\PSoC5/DEBUG_UART.c ****                     (retMode == DEBUG_UART_REINIT) ||
 830              		.loc 1 1570 0 is_stmt 1
 831 00a0 FB79     		ldrb	r3, [r7, #7]	@ zero_extendqisi2
 832 00a2 032B     		cmp	r3, #3
 833 00a4 09D1     		bne	.L31
 834              	.L38:
1571:.\Generated_Source\PSoC5/DEBUG_UART.c ****                     (retMode == DEBUG_UART_SEND_WAIT_REINIT) )
1572:.\Generated_Source\PSoC5/DEBUG_UART.c ****                 {
1573:.\Generated_Source\PSoC5/DEBUG_UART.c **** 
1574:.\Generated_Source\PSoC5/DEBUG_UART.c ****                     #if(DEBUG_UART_TXCLKGEN_DP)
1575:.\Generated_Source\PSoC5/DEBUG_UART.c ****                         DEBUG_UART_TXBITCLKTX_COMPLETE_REG = tx_period;
 835              		.loc 1 1575 0
 836 00a6 46F23443 		movw	r3, #25652
 837 00aa C4F20003 		movt	r3, 16384
 838 00ae 40F20002 		movw	r2, #:lower16:tx_period.4861
 839 00b2 C0F20002 		movt	r2, #:upper16:tx_period.4861
 840 00b6 1278     		ldrb	r2, [r2, #0]	@ zero_extendqisi2
 841 00b8 1A70     		strb	r2, [r3, #0]
 842              	.L31:
 843              	.LBE2:
1576:.\Generated_Source\PSoC5/DEBUG_UART.c ****                     #else
1577:.\Generated_Source\PSoC5/DEBUG_UART.c ****                         DEBUG_UART_TXBITCTR_PERIOD_REG = tx_period;
1578:.\Generated_Source\PSoC5/DEBUG_UART.c ****                     #endif /* End DEBUG_UART_TXCLKGEN_DP */
1579:.\Generated_Source\PSoC5/DEBUG_UART.c **** 
1580:.\Generated_Source\PSoC5/DEBUG_UART.c ****                     #if( (DEBUG_UART_PARITY_TYPE != DEBUG_UART__B_UART__NONE_REVB) || \
1581:.\Generated_Source\PSoC5/DEBUG_UART.c ****                          (DEBUG_UART_PARITY_TYPE_SW != 0u) )
1582:.\Generated_Source\PSoC5/DEBUG_UART.c ****                         DEBUG_UART_WriteControlRegister(DEBUG_UART_ReadControlRegister() &
1583:.\Generated_Source\PSoC5/DEBUG_UART.c ****                                                       (uint8)~DEBUG_UART_CTRL_HD_SEND_BREAK);
1584:.\Generated_Source\PSoC5/DEBUG_UART.c ****                     #endif /* End DEBUG_UART_PARITY_TYPE != NONE */
1585:.\Generated_Source\PSoC5/DEBUG_UART.c ****                 }
1586:.\Generated_Source\PSoC5/DEBUG_UART.c ****             #endif    /* End DEBUG_UART_HD_ENABLED */
1587:.\Generated_Source\PSoC5/DEBUG_UART.c ****         }
1588:.\Generated_Source\PSoC5/DEBUG_UART.c ****     }
 844              		.loc 1 1588 0
 845 00ba 07F11407 		add	r7, r7, #20
 846 00be BD46     		mov	sp, r7
 847 00c0 80BC     		pop	{r7}
 848 00c2 7047     		bx	lr
 849              		.cfi_endproc
 850              	.LFE15:
 851              		.size	DEBUG_UART_SendBreak, .-DEBUG_UART_SendBreak
 852              		.section	.text.DEBUG_UART_SetTxAddressMode,"ax",%progbits
 853              		.align	2
 854              		.global	DEBUG_UART_SetTxAddressMode
 855              		.thumb
 856              		.thumb_func
 857              		.type	DEBUG_UART_SetTxAddressMode, %function
 858              	DEBUG_UART_SetTxAddressMode:
 859              	.LFB16:
1589:.\Generated_Source\PSoC5/DEBUG_UART.c **** 
1590:.\Generated_Source\PSoC5/DEBUG_UART.c **** 
1591:.\Generated_Source\PSoC5/DEBUG_UART.c ****     /*******************************************************************************
ARM GAS  C:\Users\Mark\AppData\Local\Temp\ccMUWMIC.s 			page 44


1592:.\Generated_Source\PSoC5/DEBUG_UART.c ****     * Function Name: DEBUG_UART_SetTxAddressMode
1593:.\Generated_Source\PSoC5/DEBUG_UART.c ****     ********************************************************************************
1594:.\Generated_Source\PSoC5/DEBUG_UART.c ****     *
1595:.\Generated_Source\PSoC5/DEBUG_UART.c ****     * Summary:
1596:.\Generated_Source\PSoC5/DEBUG_UART.c ****     *  Set the transmit addressing mode
1597:.\Generated_Source\PSoC5/DEBUG_UART.c ****     *
1598:.\Generated_Source\PSoC5/DEBUG_UART.c ****     * Parameters:
1599:.\Generated_Source\PSoC5/DEBUG_UART.c ****     *  addressMode: 0 -> Space
1600:.\Generated_Source\PSoC5/DEBUG_UART.c ****     *               1 -> Mark
1601:.\Generated_Source\PSoC5/DEBUG_UART.c ****     *
1602:.\Generated_Source\PSoC5/DEBUG_UART.c ****     * Return:
1603:.\Generated_Source\PSoC5/DEBUG_UART.c ****     *  None.
1604:.\Generated_Source\PSoC5/DEBUG_UART.c ****     *
1605:.\Generated_Source\PSoC5/DEBUG_UART.c ****     *******************************************************************************/
1606:.\Generated_Source\PSoC5/DEBUG_UART.c ****     void DEBUG_UART_SetTxAddressMode(uint8 addressMode) 
1607:.\Generated_Source\PSoC5/DEBUG_UART.c ****     {
 860              		.loc 1 1607 0
 861              		.cfi_startproc
 862              		@ args = 0, pretend = 0, frame = 8
 863              		@ frame_needed = 1, uses_anonymous_args = 0
 864              		@ link register save eliminated.
 865 0000 80B4     		push	{r7}
 866              	.LCFI44:
 867              		.cfi_def_cfa_offset 4
 868              		.cfi_offset 7, -4
 869 0002 83B0     		sub	sp, sp, #12
 870              	.LCFI45:
 871              		.cfi_def_cfa_offset 16
 872 0004 00AF     		add	r7, sp, #0
 873              	.LCFI46:
 874              		.cfi_def_cfa_register 7
 875 0006 0346     		mov	r3, r0
 876 0008 FB71     		strb	r3, [r7, #7]
1608:.\Generated_Source\PSoC5/DEBUG_UART.c ****         /* Mark/Space sending enable*/
1609:.\Generated_Source\PSoC5/DEBUG_UART.c ****         if(addressMode != 0u)
1610:.\Generated_Source\PSoC5/DEBUG_UART.c ****         {
1611:.\Generated_Source\PSoC5/DEBUG_UART.c ****             #if( DEBUG_UART_CONTROL_REG_REMOVED == 0u )
1612:.\Generated_Source\PSoC5/DEBUG_UART.c ****                 DEBUG_UART_WriteControlRegister(DEBUG_UART_ReadControlRegister() |
1613:.\Generated_Source\PSoC5/DEBUG_UART.c ****                                                       DEBUG_UART_CTRL_MARK);
1614:.\Generated_Source\PSoC5/DEBUG_UART.c ****             #endif /* End DEBUG_UART_CONTROL_REG_REMOVED == 0u */
1615:.\Generated_Source\PSoC5/DEBUG_UART.c ****         }
1616:.\Generated_Source\PSoC5/DEBUG_UART.c ****         else
1617:.\Generated_Source\PSoC5/DEBUG_UART.c ****         {
1618:.\Generated_Source\PSoC5/DEBUG_UART.c ****             #if( DEBUG_UART_CONTROL_REG_REMOVED == 0u )
1619:.\Generated_Source\PSoC5/DEBUG_UART.c ****                 DEBUG_UART_WriteControlRegister(DEBUG_UART_ReadControlRegister() &
1620:.\Generated_Source\PSoC5/DEBUG_UART.c ****                                                     (uint8)~DEBUG_UART_CTRL_MARK);
1621:.\Generated_Source\PSoC5/DEBUG_UART.c ****             #endif /* End DEBUG_UART_CONTROL_REG_REMOVED == 0u */
1622:.\Generated_Source\PSoC5/DEBUG_UART.c ****         }
1623:.\Generated_Source\PSoC5/DEBUG_UART.c ****     }
 877              		.loc 1 1623 0
 878 000a 07F10C07 		add	r7, r7, #12
 879 000e BD46     		mov	sp, r7
 880 0010 80BC     		pop	{r7}
 881 0012 7047     		bx	lr
 882              		.cfi_endproc
 883              	.LFE16:
 884              		.size	DEBUG_UART_SetTxAddressMode, .-DEBUG_UART_SetTxAddressMode
ARM GAS  C:\Users\Mark\AppData\Local\Temp\ccMUWMIC.s 			page 45


 885              		.bss
 886              	tx_period.4861:
 887 0001 00       		.space	1
 888              		.text
 889              	.Letext0:
 890              		.file 2 ".\\Generated_Source\\PSoC5\\cytypes.h"