ARM GAS  C:\Users\Mark\AppData\Local\Temp\ccKvac9C.s 			page 1


   1              		.syntax unified
   2              		.cpu cortex-m3
   3              		.fpu softvfp
   4              		.eabi_attribute 20, 1
   5              		.eabi_attribute 21, 1
   6              		.eabi_attribute 23, 3
   7              		.eabi_attribute 24, 1
   8              		.eabi_attribute 25, 1
   9              		.eabi_attribute 26, 1
  10              		.eabi_attribute 30, 6
  11              		.eabi_attribute 34, 1
  12              		.eabi_attribute 18, 4
  13              		.thumb
  14              		.file	"LINX.c"
  15              		.text
  16              	.Ltext0:
  17              		.cfi_sections	.debug_frame
  18              		.section	.rodata
  19              		.align	2
  20              	.LC0:
  21 0000 1B5B324A 		.ascii	"\033[2J\000"
  21      00
  22 0005 000000   		.align	2
  23              	.LC1:
  24 0008 4C494E58 		.ascii	"LINX firmware started in debug mode\015\012\000"
  24      20666972 
  24      6D776172 
  24      65207374 
  24      61727465 
  25              		.section	.text.LINX_Initialize,"ax",%progbits
  26              		.align	2
  27              		.global	LINX_Initialize
  28              		.thumb
  29              		.thumb_func
  30              		.type	LINX_Initialize, %function
  31              	LINX_Initialize:
  32              	.LFB56:
  33              		.file 1 ".\\LINX.c"
   1:.\LINX.c      **** /**
   2:.\LINX.c      **** * \file LINX.c
   3:.\LINX.c      **** * \brief TODO
   4:.\LINX.c      **** *
   5:.\LINX.c      **** * Version 1.1.2 TODO
   6:.\LINX.c      **** *
   7:.\LINX.c      **** * \author Mark Bradley
   8:.\LINX.c      **** *
   9:.\LINX.c      **** * \bug TODO
  10:.\LINX.c      **** *
  11:.\LINX.c      **** *
  12:.\LINX.c      **** * Copyright Embedit Electronics
  13:.\LINX.c      **** * 
  14:.\LINX.c      **** */
  15:.\LINX.c      **** 
  16:.\LINX.c      **** #ifndef LINX_H
  17:.\LINX.c      ****     #include "LINX.h"
  18:.\LINX.c      **** #endif
  19:.\LINX.c      **** 
ARM GAS  C:\Users\Mark\AppData\Local\Temp\ccKvac9C.s 			page 2


  20:.\LINX.c      **** #include <project.h>
  21:.\LINX.c      **** #include <stdio.h>
  22:.\LINX.c      **** 
  23:.\LINX.c      **** void LINX_Initialize() {
  34              		.loc 1 23 0
  35              		.cfi_startproc
  36              		@ args = 0, pretend = 0, frame = 0
  37              		@ frame_needed = 1, uses_anonymous_args = 0
  38 0000 80B5     		push	{r7, lr}
  39              	.LCFI0:
  40              		.cfi_def_cfa_offset 8
  41              		.cfi_offset 7, -8
  42              		.cfi_offset 14, -4
  43 0002 00AF     		add	r7, sp, #0
  44              	.LCFI1:
  45              		.cfi_def_cfa_register 7
  24:.\LINX.c      ****     USBUART_Start(0u, USBUART_5V_OPERATION);
  46              		.loc 1 24 0
  47 0004 4FF00000 		mov	r0, #0
  48 0008 4FF00101 		mov	r1, #1
  49 000c FFF7FEFF 		bl	USBUART_Start
  25:.\LINX.c      ****     while(!USBUART_GetConfiguration());
  50              		.loc 1 25 0
  51 0010 00BF     		nop
  52              	.L2:
  53              		.loc 1 25 0 is_stmt 0 discriminator 1
  54 0012 FFF7FEFF 		bl	USBUART_GetConfiguration
  55 0016 0346     		mov	r3, r0
  56 0018 002B     		cmp	r3, #0
  57 001a FAD0     		beq	.L2
  26:.\LINX.c      ****     USBUART_CDC_Init();
  58              		.loc 1 26 0 is_stmt 1
  59 001c FFF7FEFF 		bl	USBUART_CDC_Init
  27:.\LINX.c      ****     
  28:.\LINX.c      ****     #ifdef LINX_DEBUG
  29:.\LINX.c      ****         DEBUG_UART_Start();
  60              		.loc 1 29 0
  61 0020 FFF7FEFF 		bl	DEBUG_UART_Start
  30:.\LINX.c      ****         DEBUG_UART_PutString("\033[2J");
  62              		.loc 1 30 0
  63 0024 40F20000 		movw	r0, #:lower16:.LC0
  64 0028 C0F20000 		movt	r0, #:upper16:.LC0
  65 002c FFF7FEFF 		bl	DEBUG_UART_PutString
  31:.\LINX.c      ****         DEBUG_UART_PutString("LINX firmware started in debug mode\r\n");
  66              		.loc 1 31 0
  67 0030 40F20000 		movw	r0, #:lower16:.LC1
  68 0034 C0F20000 		movt	r0, #:upper16:.LC1
  69 0038 FFF7FEFF 		bl	DEBUG_UART_PutString
  32:.\LINX.c      ****     #endif
  33:.\LINX.c      **** }
  70              		.loc 1 33 0
  71 003c 80BD     		pop	{r7, pc}
  72              		.cfi_endproc
  73              	.LFE56:
  74              		.size	LINX_Initialize, .-LINX_Initialize
  75 003e 00BF     		.section	.rodata
  76 002e 0000     		.align	2
ARM GAS  C:\Users\Mark\AppData\Local\Temp\ccKvac9C.s 			page 3


  77              	.LC2:
  78 0030 47657474 		.ascii	"Getting new LINX command\015\012\000"
  78      696E6720 
  78      6E657720 
  78      4C494E58 
  78      20636F6D 
  79 004b 00       		.align	2
  80              	.LC3:
  81 004c 52656365 		.ascii	"Received command:\000"
  81      69766564 
  81      20636F6D 
  81      6D616E64 
  81      3A00
  82 005e 0000     		.align	2
  83              	.LC4:
  84 0060 20257800 		.ascii	" %x\000"
  85              		.align	2
  86              	.LC5:
  87 0064 0D0A00   		.ascii	"\015\012\000"
  88 0067 00       		.align	2
  89              	.LC6:
  90 0068 09536F46 		.ascii	"\011SoF FAILED\015\012\000"
  90      20464149 
  90      4C45440D 
  90      0A00
  91 0076 0000     		.align	2
  92              	.LC7:
  93 0078 09436865 		.ascii	"\011Checksum FAILED\015\012\000"
  93      636B7375 
  93      6D204641 
  93      494C4544 
  93      0D0A00
  94 008b 00       		.align	2
  95              	.LC8:
  96 008c 09436F6D 		.ascii	"\011Command length FAILED\015\012\000"
  96      6D616E64 
  96      206C656E 
  96      67746820 
  96      4641494C 
  97 00a5 000000   		.align	2
  98              	.LC9:
  99 00a8 09436F6D 		.ascii	"\011Command validated\015\012\000"
  99      6D616E64 
  99      2076616C 
  99      69646174 
  99      65640D0A 
 100              		.section	.text.LINX_GetCommand,"ax",%progbits
 101              		.align	2
 102              		.global	LINX_GetCommand
 103              		.thumb
 104              		.thumb_func
 105              		.type	LINX_GetCommand, %function
 106              	LINX_GetCommand:
 107              	.LFB57:
  34:.\LINX.c      **** 
  35:.\LINX.c      **** bool LINX_GetCommand(uint8 *command) {
 108              		.loc 1 35 0
ARM GAS  C:\Users\Mark\AppData\Local\Temp\ccKvac9C.s 			page 4


 109              		.cfi_startproc
 110              		@ args = 0, pretend = 0, frame = 80
 111              		@ frame_needed = 1, uses_anonymous_args = 0
 112 0000 90B5     		push	{r4, r7, lr}
 113              	.LCFI2:
 114              		.cfi_def_cfa_offset 12
 115              		.cfi_offset 4, -12
 116              		.cfi_offset 7, -8
 117              		.cfi_offset 14, -4
 118 0002 95B0     		sub	sp, sp, #84
 119              	.LCFI3:
 120              		.cfi_def_cfa_offset 96
 121 0004 00AF     		add	r7, sp, #0
 122              	.LCFI4:
 123              		.cfi_def_cfa_register 7
 124 0006 7860     		str	r0, [r7, #4]
  36:.\LINX.c      ****     #ifdef LINX_DEBUG
  37:.\LINX.c      ****         DEBUG_UART_PutString("Getting new LINX command\r\n");
 125              		.loc 1 37 0
 126 0008 40F20000 		movw	r0, #:lower16:.LC2
 127 000c C0F20000 		movt	r0, #:upper16:.LC2
 128 0010 FFF7FEFF 		bl	DEBUG_UART_PutString
  38:.\LINX.c      ****         uint8 debug_str[LINX_DEBUG_STR_SIZE];
  39:.\LINX.c      ****         uint8 debug_str_len;
  40:.\LINX.c      ****         uint8 i;
  41:.\LINX.c      ****     #endif
  42:.\LINX.c      ****     
  43:.\LINX.c      ****     uint8 command_len;
  44:.\LINX.c      ****     
  45:.\LINX.c      ****     // Get command bytes
  46:.\LINX.c      ****     command_len = USBUART_GetAll(command);
 129              		.loc 1 46 0
 130 0014 7868     		ldr	r0, [r7, #4]
 131 0016 FFF7FEFF 		bl	USBUART_GetAll
 132 001a 0346     		mov	r3, r0
 133 001c 87F84E30 		strb	r3, [r7, #78]
  47:.\LINX.c      ****     
  48:.\LINX.c      ****     #ifdef LINX_DEBUG
  49:.\LINX.c      ****         DEBUG_UART_PutString("Received command:");
 134              		.loc 1 49 0
 135 0020 40F20000 		movw	r0, #:lower16:.LC3
 136 0024 C0F20000 		movt	r0, #:upper16:.LC3
 137 0028 FFF7FEFF 		bl	DEBUG_UART_PutString
  50:.\LINX.c      ****         for (i = 0; i < command_len; ++i) {
 138              		.loc 1 50 0
 139 002c 4FF00003 		mov	r3, #0
 140 0030 87F84F30 		strb	r3, [r7, #79]
 141 0034 1FE0     		b	.L4
 142              	.L5:
  51:.\LINX.c      ****             debug_str_len = sprintf(debug_str, " %x", command[i]);
 143              		.loc 1 51 0 discriminator 2
 144 0036 97F84F30 		ldrb	r3, [r7, #79]	@ zero_extendqisi2
 145 003a 7A68     		ldr	r2, [r7, #4]
 146 003c D318     		adds	r3, r2, r3
 147 003e 1B78     		ldrb	r3, [r3, #0]	@ zero_extendqisi2
 148 0040 07F10C02 		add	r2, r7, #12
 149 0044 1046     		mov	r0, r2
ARM GAS  C:\Users\Mark\AppData\Local\Temp\ccKvac9C.s 			page 5


 150 0046 40F20001 		movw	r1, #:lower16:.LC4
 151 004a C0F20001 		movt	r1, #:upper16:.LC4
 152 004e 1A46     		mov	r2, r3
 153 0050 FFF7FEFF 		bl	sprintf
 154 0054 0346     		mov	r3, r0
 155 0056 87F84D30 		strb	r3, [r7, #77]
  52:.\LINX.c      ****             DEBUG_UART_PutArray(debug_str, debug_str_len);
 156              		.loc 1 52 0 discriminator 2
 157 005a 07F10C02 		add	r2, r7, #12
 158 005e 97F84D30 		ldrb	r3, [r7, #77]	@ zero_extendqisi2
 159 0062 1046     		mov	r0, r2
 160 0064 1946     		mov	r1, r3
 161 0066 FFF7FEFF 		bl	DEBUG_UART_PutArray
  50:.\LINX.c      ****         for (i = 0; i < command_len; ++i) {
 162              		.loc 1 50 0 discriminator 2
 163 006a 97F84F30 		ldrb	r3, [r7, #79]
 164 006e 03F10103 		add	r3, r3, #1
 165 0072 87F84F30 		strb	r3, [r7, #79]
 166              	.L4:
  50:.\LINX.c      ****         for (i = 0; i < command_len; ++i) {
 167              		.loc 1 50 0 is_stmt 0 discriminator 1
 168 0076 97F84F20 		ldrb	r2, [r7, #79]	@ zero_extendqisi2
 169 007a 97F84E30 		ldrb	r3, [r7, #78]	@ zero_extendqisi2
 170 007e 9A42     		cmp	r2, r3
 171 0080 D9D3     		bcc	.L5
  53:.\LINX.c      ****         }
  54:.\LINX.c      ****         DEBUG_UART_PutString("\r\n");
 172              		.loc 1 54 0 is_stmt 1
 173 0082 40F20000 		movw	r0, #:lower16:.LC5
 174 0086 C0F20000 		movt	r0, #:upper16:.LC5
 175 008a FFF7FEFF 		bl	DEBUG_UART_PutString
  55:.\LINX.c      ****     #endif
  56:.\LINX.c      ****     
  57:.\LINX.c      ****     // Verify SoF
  58:.\LINX.c      ****     if (command[0] != 0xFF) {
 176              		.loc 1 58 0
 177 008e 7B68     		ldr	r3, [r7, #4]
 178 0090 1B78     		ldrb	r3, [r3, #0]	@ zero_extendqisi2
 179 0092 FF2B     		cmp	r3, #255
 180 0094 08D0     		beq	.L6
  59:.\LINX.c      ****         #ifdef LINX_DEBUG
  60:.\LINX.c      ****             DEBUG_UART_PutString("\tSoF FAILED\r\n");
 181              		.loc 1 60 0
 182 0096 40F20000 		movw	r0, #:lower16:.LC6
 183 009a C0F20000 		movt	r0, #:upper16:.LC6
 184 009e FFF7FEFF 		bl	DEBUG_UART_PutString
  61:.\LINX.c      ****         #endif
  62:.\LINX.c      ****         
  63:.\LINX.c      ****         return false;
 185              		.loc 1 63 0
 186 00a2 4FF00003 		mov	r3, #0
 187 00a6 34E0     		b	.L10
 188              	.L6:
  64:.\LINX.c      ****     }
  65:.\LINX.c      ****     
  66:.\LINX.c      ****     // Verify checksum
  67:.\LINX.c      ****     if (command[command_len - 1] != LINX_CalculateChecksum(command, command_len - 1)) {
ARM GAS  C:\Users\Mark\AppData\Local\Temp\ccKvac9C.s 			page 6


 189              		.loc 1 67 0
 190 00a8 97F84E30 		ldrb	r3, [r7, #78]	@ zero_extendqisi2
 191 00ac 03F1FF33 		add	r3, r3, #-1
 192 00b0 7A68     		ldr	r2, [r7, #4]
 193 00b2 D318     		adds	r3, r2, r3
 194 00b4 1C78     		ldrb	r4, [r3, #0]	@ zero_extendqisi2
 195 00b6 97F84E30 		ldrb	r3, [r7, #78]
 196 00ba 03F1FF33 		add	r3, r3, #-1
 197 00be DBB2     		uxtb	r3, r3
 198 00c0 7868     		ldr	r0, [r7, #4]
 199 00c2 1946     		mov	r1, r3
 200 00c4 FFF7FEFF 		bl	LINX_CalculateChecksum
 201 00c8 0346     		mov	r3, r0
 202 00ca 9C42     		cmp	r4, r3
 203 00cc 08D0     		beq	.L8
  68:.\LINX.c      ****         #ifdef LINX_DEBUG
  69:.\LINX.c      ****             DEBUG_UART_PutString("\tChecksum FAILED\r\n");
 204              		.loc 1 69 0
 205 00ce 40F20000 		movw	r0, #:lower16:.LC7
 206 00d2 C0F20000 		movt	r0, #:upper16:.LC7
 207 00d6 FFF7FEFF 		bl	DEBUG_UART_PutString
  70:.\LINX.c      ****         #endif
  71:.\LINX.c      ****         
  72:.\LINX.c      ****         return false;
 208              		.loc 1 72 0
 209 00da 4FF00003 		mov	r3, #0
 210 00de 18E0     		b	.L10
 211              	.L8:
  73:.\LINX.c      ****     }
  74:.\LINX.c      ****     
  75:.\LINX.c      ****     // Verify command length
  76:.\LINX.c      ****     if (command[1] != command_len) {
 212              		.loc 1 76 0
 213 00e0 7B68     		ldr	r3, [r7, #4]
 214 00e2 03F10103 		add	r3, r3, #1
 215 00e6 1B78     		ldrb	r3, [r3, #0]	@ zero_extendqisi2
 216 00e8 97F84E20 		ldrb	r2, [r7, #78]	@ zero_extendqisi2
 217 00ec 9A42     		cmp	r2, r3
 218 00ee 08D0     		beq	.L9
  77:.\LINX.c      ****         #ifdef LINX_DEBUG
  78:.\LINX.c      ****             DEBUG_UART_PutString("\tCommand length FAILED\r\n");
 219              		.loc 1 78 0
 220 00f0 40F20000 		movw	r0, #:lower16:.LC8
 221 00f4 C0F20000 		movt	r0, #:upper16:.LC8
 222 00f8 FFF7FEFF 		bl	DEBUG_UART_PutString
  79:.\LINX.c      ****         #endif
  80:.\LINX.c      ****         
  81:.\LINX.c      ****         return false;
 223              		.loc 1 81 0
 224 00fc 4FF00003 		mov	r3, #0
 225 0100 07E0     		b	.L10
 226              	.L9:
  82:.\LINX.c      ****     }
  83:.\LINX.c      ****     
  84:.\LINX.c      ****     #ifdef LINX_DEBUG
  85:.\LINX.c      ****         DEBUG_UART_PutString("\tCommand validated\r\n");
 227              		.loc 1 85 0
ARM GAS  C:\Users\Mark\AppData\Local\Temp\ccKvac9C.s 			page 7


 228 0102 40F20000 		movw	r0, #:lower16:.LC9
 229 0106 C0F20000 		movt	r0, #:upper16:.LC9
 230 010a FFF7FEFF 		bl	DEBUG_UART_PutString
  86:.\LINX.c      ****     #endif
  87:.\LINX.c      ****     return true;
 231              		.loc 1 87 0
 232 010e 4FF00103 		mov	r3, #1
 233              	.L10:
  88:.\LINX.c      **** }
 234              		.loc 1 88 0
 235 0112 1846     		mov	r0, r3
 236 0114 07F15407 		add	r7, r7, #84
 237 0118 BD46     		mov	sp, r7
 238 011a 90BD     		pop	{r4, r7, pc}
 239              		.cfi_endproc
 240              	.LFE57:
 241              		.size	LINX_GetCommand, .-LINX_GetCommand
 242              		.section	.text.LINX_CalculateChecksum,"ax",%progbits
 243              		.align	2
 244              		.global	LINX_CalculateChecksum
 245              		.thumb
 246              		.thumb_func
 247              		.type	LINX_CalculateChecksum, %function
 248              	LINX_CalculateChecksum:
 249              	.LFB58:
  89:.\LINX.c      **** 
  90:.\LINX.c      **** uint8 LINX_CalculateChecksum(uint8 *buffer, uint8 buffer_len) {
 250              		.loc 1 90 0
 251              		.cfi_startproc
 252              		@ args = 0, pretend = 0, frame = 16
 253              		@ frame_needed = 1, uses_anonymous_args = 0
 254              		@ link register save eliminated.
 255 0000 80B4     		push	{r7}
 256              	.LCFI5:
 257              		.cfi_def_cfa_offset 4
 258              		.cfi_offset 7, -4
 259 0002 85B0     		sub	sp, sp, #20
 260              	.LCFI6:
 261              		.cfi_def_cfa_offset 24
 262 0004 00AF     		add	r7, sp, #0
 263              	.LCFI7:
 264              		.cfi_def_cfa_register 7
 265 0006 7860     		str	r0, [r7, #4]
 266 0008 0B46     		mov	r3, r1
 267 000a FB70     		strb	r3, [r7, #3]
  91:.\LINX.c      ****     uint8 checksum = 0;
 268              		.loc 1 91 0
 269 000c 4FF00003 		mov	r3, #0
 270 0010 FB73     		strb	r3, [r7, #15]
  92:.\LINX.c      ****     uint8 i;
  93:.\LINX.c      ****     
  94:.\LINX.c      ****     for (i = 0; i < buffer_len; ++i) {
 271              		.loc 1 94 0
 272 0012 4FF00003 		mov	r3, #0
 273 0016 BB73     		strb	r3, [r7, #14]
 274 0018 0AE0     		b	.L12
 275              	.L13:
ARM GAS  C:\Users\Mark\AppData\Local\Temp\ccKvac9C.s 			page 8


  95:.\LINX.c      ****         checksum += buffer[i];
 276              		.loc 1 95 0 discriminator 2
 277 001a BB7B     		ldrb	r3, [r7, #14]	@ zero_extendqisi2
 278 001c 7A68     		ldr	r2, [r7, #4]
 279 001e D318     		adds	r3, r2, r3
 280 0020 1A78     		ldrb	r2, [r3, #0]	@ zero_extendqisi2
 281 0022 FB7B     		ldrb	r3, [r7, #15]
 282 0024 D318     		adds	r3, r2, r3
 283 0026 FB73     		strb	r3, [r7, #15]
  94:.\LINX.c      ****     for (i = 0; i < buffer_len; ++i) {
 284              		.loc 1 94 0 discriminator 2
 285 0028 BB7B     		ldrb	r3, [r7, #14]
 286 002a 03F10103 		add	r3, r3, #1
 287 002e BB73     		strb	r3, [r7, #14]
 288              	.L12:
  94:.\LINX.c      ****     for (i = 0; i < buffer_len; ++i) {
 289              		.loc 1 94 0 is_stmt 0 discriminator 1
 290 0030 BA7B     		ldrb	r2, [r7, #14]	@ zero_extendqisi2
 291 0032 FB78     		ldrb	r3, [r7, #3]	@ zero_extendqisi2
 292 0034 9A42     		cmp	r2, r3
 293 0036 F0D3     		bcc	.L13
  96:.\LINX.c      ****     }
  97:.\LINX.c      ****     
  98:.\LINX.c      ****     return checksum;
 294              		.loc 1 98 0 is_stmt 1
 295 0038 FB7B     		ldrb	r3, [r7, #15]	@ zero_extendqisi2
  99:.\LINX.c      **** }
 296              		.loc 1 99 0
 297 003a 1846     		mov	r0, r3
 298 003c 07F11407 		add	r7, r7, #20
 299 0040 BD46     		mov	sp, r7
 300 0042 80BC     		pop	{r7}
 301 0044 7047     		bx	lr
 302              		.cfi_endproc
 303              	.LFE58:
 304              		.size	LINX_CalculateChecksum, .-LINX_CalculateChecksum
 305 0046 00BF     		.section	.rodata
 306 00bd 000000   		.align	2
 307              	.LC10:
 308 00c0 0950726F 		.ascii	"\011Processing LINX command: \000"
 308      63657373 
 308      696E6720 
 308      4C494E58 
 308      20636F6D 
 309 00db 00       		.align	2
 310              	.LC11:
 311 00dc 53796E63 		.ascii	"Sync\015\012\000"
 311      0D0A00
 312 00e3 00       		.align	2
 313              	.LC12:
 314 00e4 47657420 		.ascii	"Get device ID\015\012\000"
 314      64657669 
 314      63652049 
 314      440D0A00 
 315              		.align	2
 316              	.LC13:
 317 00f4 47657420 		.ascii	"Get max baud rate\015\012\000"
ARM GAS  C:\Users\Mark\AppData\Local\Temp\ccKvac9C.s 			page 9


 317      6D617820 
 317      62617564 
 317      20726174 
 317      650D0A00 
 318              		.align	2
 319              	.LC14:
 320 0108 556E7375 		.ascii	"Unsupported\015\012\000"
 320      70706F72 
 320      7465640D 
 320      0A00
 321 0116 0000     		.align	2
 322              	.LC15:
 323 0118 0947656E 		.ascii	"\011Generated response:\000"
 323      65726174 
 323      65642072 
 323      6573706F 
 323      6E73653A 
 324              		.section	.text.LINX_ProcessCommand,"ax",%progbits
 325              		.align	2
 326              		.global	LINX_ProcessCommand
 327              		.thumb
 328              		.thumb_func
 329              		.type	LINX_ProcessCommand, %function
 330              	LINX_ProcessCommand:
 331              	.LFB59:
 100:.\LINX.c      **** 
 101:.\LINX.c      **** void LINX_ProcessCommand(uint8 *command, uint8 *response) {
 332              		.loc 1 101 0
 333              		.cfi_startproc
 334              		@ args = 0, pretend = 0, frame = 88
 335              		@ frame_needed = 1, uses_anonymous_args = 0
 336 0000 90B5     		push	{r4, r7, lr}
 337              	.LCFI8:
 338              		.cfi_def_cfa_offset 12
 339              		.cfi_offset 4, -12
 340              		.cfi_offset 7, -8
 341              		.cfi_offset 14, -4
 342 0002 97B0     		sub	sp, sp, #92
 343              	.LCFI9:
 344              		.cfi_def_cfa_offset 104
 345 0004 00AF     		add	r7, sp, #0
 346              	.LCFI10:
 347              		.cfi_def_cfa_register 7
 348 0006 7860     		str	r0, [r7, #4]
 349 0008 3960     		str	r1, [r7, #0]
 102:.\LINX.c      ****     #ifdef LINX_DEBUG
 103:.\LINX.c      ****         DEBUG_UART_PutString("\tProcessing LINX command: ");
 350              		.loc 1 103 0
 351 000a 40F20000 		movw	r0, #:lower16:.LC10
 352 000e C0F20000 		movt	r0, #:upper16:.LC10
 353 0012 FFF7FEFF 		bl	DEBUG_UART_PutString
 104:.\LINX.c      ****         uint8 debug_str[LINX_DEBUG_STR_SIZE];
 105:.\LINX.c      ****         uint8 debug_str_len;
 106:.\LINX.c      ****     #endif
 107:.\LINX.c      ****     
 108:.\LINX.c      ****     uint16 cmd = command[4] << 8 | command[5];
 354              		.loc 1 108 0
ARM GAS  C:\Users\Mark\AppData\Local\Temp\ccKvac9C.s 			page 10


 355 0016 7B68     		ldr	r3, [r7, #4]
 356 0018 03F10403 		add	r3, r3, #4
 357 001c 1B78     		ldrb	r3, [r3, #0]	@ zero_extendqisi2
 358 001e 4FEA0323 		lsl	r3, r3, #8
 359 0022 9AB2     		uxth	r2, r3
 360 0024 7B68     		ldr	r3, [r7, #4]
 361 0026 03F10503 		add	r3, r3, #5
 362 002a 1B78     		ldrb	r3, [r3, #0]	@ zero_extendqisi2
 363 002c 1343     		orrs	r3, r3, r2
 364 002e 9BB2     		uxth	r3, r3
 365 0030 A7F85230 		strh	r3, [r7, #82]	@ movhi
 109:.\LINX.c      ****     uint8 i;
 110:.\LINX.c      ****     
 111:.\LINX.c      ****     uint8 status = L_OK;
 366              		.loc 1 111 0
 367 0034 4FF00003 		mov	r3, #0
 368 0038 87F85630 		strb	r3, [r7, #86]
 112:.\LINX.c      ****     uint8 response_data[LINX_RESPONSE_DATA_SIZE];
 113:.\LINX.c      ****     uint8 response_data_len = 0;
 369              		.loc 1 113 0
 370 003c 4FF00003 		mov	r3, #0
 371 0040 87F85530 		strb	r3, [r7, #85]
 114:.\LINX.c      ****     
 115:.\LINX.c      ****     switch(cmd) {
 372              		.loc 1 115 0
 373 0044 B7F85230 		ldrh	r3, [r7, #82]
 374 0048 032B     		cmp	r3, #3
 375 004a 0AD0     		beq	.L18
 376 004c 052B     		cmp	r3, #5
 377 004e 19D0     		beq	.L19
 378 0050 002B     		cmp	r3, #0
 379 0052 2ED1     		bne	.L25
 380              	.L17:
 116:.\LINX.c      ****         // Sync
 117:.\LINX.c      ****         case 0x00:
 118:.\LINX.c      ****             #ifdef LINX_DEBUG
 119:.\LINX.c      ****                 DEBUG_UART_PutString("Sync\r\n");
 381              		.loc 1 119 0
 382 0054 40F20000 		movw	r0, #:lower16:.LC11
 383 0058 C0F20000 		movt	r0, #:upper16:.LC11
 384 005c FFF7FEFF 		bl	DEBUG_UART_PutString
 120:.\LINX.c      ****             #endif
 121:.\LINX.c      ****             
 122:.\LINX.c      ****             // Do nothing, will default to responding with L_OK status and no data
 123:.\LINX.c      ****             break;
 385              		.loc 1 123 0
 386 0060 32E0     		b	.L20
 387              	.L18:
 124:.\LINX.c      ****         
 125:.\LINX.c      ****         // Get device ID
 126:.\LINX.c      ****         case 0x03:
 127:.\LINX.c      ****             #ifdef LINX_DEBUG
 128:.\LINX.c      ****                 DEBUG_UART_PutString("Get device ID\r\n");
 388              		.loc 1 128 0
 389 0062 40F20000 		movw	r0, #:lower16:.LC12
 390 0066 C0F20000 		movt	r0, #:upper16:.LC12
 391 006a FFF7FEFF 		bl	DEBUG_UART_PutString
ARM GAS  C:\Users\Mark\AppData\Local\Temp\ccKvac9C.s 			page 11


 129:.\LINX.c      ****             #endif
 130:.\LINX.c      ****             
 131:.\LINX.c      ****             response_data_len = 2;
 392              		.loc 1 131 0
 393 006e 4FF00203 		mov	r3, #2
 394 0072 87F85530 		strb	r3, [r7, #85]
 132:.\LINX.c      ****             response_data[0] = LINX_DEVICE_FAMILY;
 395              		.loc 1 132 0
 396 0076 4FF0FF03 		mov	r3, #255
 397 007a 3B73     		strb	r3, [r7, #12]
 133:.\LINX.c      ****             response_data[1] = LINX_DEVICE_ID;
 398              		.loc 1 133 0
 399 007c 4FF00003 		mov	r3, #0
 400 0080 7B73     		strb	r3, [r7, #13]
 134:.\LINX.c      ****             break;
 401              		.loc 1 134 0
 402 0082 21E0     		b	.L20
 403              	.L19:
 135:.\LINX.c      ****         
 136:.\LINX.c      ****         // Get max baud rate
 137:.\LINX.c      ****         case 0x05:
 138:.\LINX.c      ****             #ifdef LINX_DEBUG
 139:.\LINX.c      ****                 DEBUG_UART_PutString("Get max baud rate\r\n");
 404              		.loc 1 139 0
 405 0084 40F20000 		movw	r0, #:lower16:.LC13
 406 0088 C0F20000 		movt	r0, #:upper16:.LC13
 407 008c FFF7FEFF 		bl	DEBUG_UART_PutString
 140:.\LINX.c      ****             #endif
 141:.\LINX.c      ****             
 142:.\LINX.c      ****             response_data_len = 4;
 408              		.loc 1 142 0
 409 0090 4FF00403 		mov	r3, #4
 410 0094 87F85530 		strb	r3, [r7, #85]
 143:.\LINX.c      ****             response_data[0] = (LINX_MAX_BAUD_RATE >> 24) & 0xFF;
 411              		.loc 1 143 0
 412 0098 4FF00003 		mov	r3, #0
 413 009c 3B73     		strb	r3, [r7, #12]
 144:.\LINX.c      ****             response_data[1] = (LINX_MAX_BAUD_RATE >> 16) & 0xFF;
 414              		.loc 1 144 0
 415 009e 4FF00003 		mov	r3, #0
 416 00a2 7B73     		strb	r3, [r7, #13]
 145:.\LINX.c      ****             response_data[2] = (LINX_MAX_BAUD_RATE >> 8) & 0xFF;
 417              		.loc 1 145 0
 418 00a4 4FF02503 		mov	r3, #37
 419 00a8 BB73     		strb	r3, [r7, #14]
 146:.\LINX.c      ****             response_data[3] = LINX_MAX_BAUD_RATE & 0xFF;
 420              		.loc 1 146 0
 421 00aa 4FF08003 		mov	r3, #128
 422 00ae FB73     		strb	r3, [r7, #15]
 147:.\LINX.c      ****             break;
 423              		.loc 1 147 0
 424 00b0 0AE0     		b	.L20
 425              	.L25:
 148:.\LINX.c      ****             
 149:.\LINX.c      ****         // Unsupported command
 150:.\LINX.c      ****         default:
 151:.\LINX.c      ****             #ifdef LINX_DEBUG
ARM GAS  C:\Users\Mark\AppData\Local\Temp\ccKvac9C.s 			page 12


 152:.\LINX.c      ****                 DEBUG_UART_PutString("Unsupported\r\n");
 426              		.loc 1 152 0
 427 00b2 40F20000 		movw	r0, #:lower16:.LC14
 428 00b6 C0F20000 		movt	r0, #:upper16:.LC14
 429 00ba FFF7FEFF 		bl	DEBUG_UART_PutString
 153:.\LINX.c      ****             #endif
 154:.\LINX.c      ****             
 155:.\LINX.c      ****             status = L_FUNCTION_NOT_SUPPORTED;
 430              		.loc 1 155 0
 431 00be 4FF00103 		mov	r3, #1
 432 00c2 87F85630 		strb	r3, [r7, #86]
 156:.\LINX.c      ****             break;
 433              		.loc 1 156 0
 434 00c6 00BF     		nop
 435              	.L20:
 157:.\LINX.c      ****     }
 158:.\LINX.c      ****     
 159:.\LINX.c      ****     // Build response
 160:.\LINX.c      ****     response[0] = 0xFF;
 436              		.loc 1 160 0
 437 00c8 3B68     		ldr	r3, [r7, #0]
 438 00ca 4FF0FF02 		mov	r2, #255
 439 00ce 1A70     		strb	r2, [r3, #0]
 161:.\LINX.c      ****     response[1] = 6 + response_data_len;
 440              		.loc 1 161 0
 441 00d0 3B68     		ldr	r3, [r7, #0]
 442 00d2 03F10103 		add	r3, r3, #1
 443 00d6 97F85520 		ldrb	r2, [r7, #85]
 444 00da 02F10602 		add	r2, r2, #6
 445 00de D2B2     		uxtb	r2, r2
 446 00e0 1A70     		strb	r2, [r3, #0]
 162:.\LINX.c      ****     response[2] = command[2];
 447              		.loc 1 162 0
 448 00e2 3B68     		ldr	r3, [r7, #0]
 449 00e4 03F10203 		add	r3, r3, #2
 450 00e8 7A68     		ldr	r2, [r7, #4]
 451 00ea 9278     		ldrb	r2, [r2, #2]	@ zero_extendqisi2
 452 00ec 1A70     		strb	r2, [r3, #0]
 163:.\LINX.c      ****     response[3] = command[3];
 453              		.loc 1 163 0
 454 00ee 3B68     		ldr	r3, [r7, #0]
 455 00f0 03F10303 		add	r3, r3, #3
 456 00f4 7A68     		ldr	r2, [r7, #4]
 457 00f6 D278     		ldrb	r2, [r2, #3]	@ zero_extendqisi2
 458 00f8 1A70     		strb	r2, [r3, #0]
 164:.\LINX.c      ****     response[4] = status;
 459              		.loc 1 164 0
 460 00fa 3B68     		ldr	r3, [r7, #0]
 461 00fc 03F10403 		add	r3, r3, #4
 462 0100 97F85620 		ldrb	r2, [r7, #86]
 463 0104 1A70     		strb	r2, [r3, #0]
 165:.\LINX.c      ****     for (i = 0; i < response_data_len; ++i) {
 464              		.loc 1 165 0
 465 0106 4FF00003 		mov	r3, #0
 466 010a 87F85730 		strb	r3, [r7, #87]
 467 010e 13E0     		b	.L21
 468              	.L22:
ARM GAS  C:\Users\Mark\AppData\Local\Temp\ccKvac9C.s 			page 13


 166:.\LINX.c      ****         response[5 + i] = response_data[i];
 469              		.loc 1 166 0 discriminator 2
 470 0110 97F85730 		ldrb	r3, [r7, #87]	@ zero_extendqisi2
 471 0114 03F10503 		add	r3, r3, #5
 472 0118 3A68     		ldr	r2, [r7, #0]
 473 011a D318     		adds	r3, r2, r3
 474 011c 97F85720 		ldrb	r2, [r7, #87]	@ zero_extendqisi2
 475 0120 07F15801 		add	r1, r7, #88
 476 0124 8A18     		adds	r2, r1, r2
 477 0126 12F84C2C 		ldrb	r2, [r2, #-76]	@ zero_extendqisi2
 478 012a 1A70     		strb	r2, [r3, #0]
 165:.\LINX.c      ****     for (i = 0; i < response_data_len; ++i) {
 479              		.loc 1 165 0 discriminator 2
 480 012c 97F85730 		ldrb	r3, [r7, #87]
 481 0130 03F10103 		add	r3, r3, #1
 482 0134 87F85730 		strb	r3, [r7, #87]
 483              	.L21:
 165:.\LINX.c      ****     for (i = 0; i < response_data_len; ++i) {
 484              		.loc 1 165 0 is_stmt 0 discriminator 1
 485 0138 97F85720 		ldrb	r2, [r7, #87]	@ zero_extendqisi2
 486 013c 97F85530 		ldrb	r3, [r7, #85]	@ zero_extendqisi2
 487 0140 9A42     		cmp	r2, r3
 488 0142 E5D3     		bcc	.L22
 167:.\LINX.c      ****     }
 168:.\LINX.c      ****     response[5 + response_data_len] = LINX_CalculateChecksum(response, 5 + response_data_len);
 489              		.loc 1 168 0 is_stmt 1
 490 0144 97F85530 		ldrb	r3, [r7, #85]	@ zero_extendqisi2
 491 0148 03F10503 		add	r3, r3, #5
 492 014c 3A68     		ldr	r2, [r7, #0]
 493 014e D418     		adds	r4, r2, r3
 494 0150 97F85530 		ldrb	r3, [r7, #85]
 495 0154 03F10503 		add	r3, r3, #5
 496 0158 DBB2     		uxtb	r3, r3
 497 015a 3868     		ldr	r0, [r7, #0]
 498 015c 1946     		mov	r1, r3
 499 015e FFF7FEFF 		bl	LINX_CalculateChecksum
 500 0162 0346     		mov	r3, r0
 501 0164 2370     		strb	r3, [r4, #0]
 169:.\LINX.c      ****     
 170:.\LINX.c      ****     #ifdef LINX_DEBUG
 171:.\LINX.c      ****         DEBUG_UART_PutString("\tGenerated response:");
 502              		.loc 1 171 0
 503 0166 40F20000 		movw	r0, #:lower16:.LC15
 504 016a C0F20000 		movt	r0, #:upper16:.LC15
 505 016e FFF7FEFF 		bl	DEBUG_UART_PutString
 172:.\LINX.c      ****         for (i = 0; i < response[1]; ++i) {
 506              		.loc 1 172 0
 507 0172 4FF00003 		mov	r3, #0
 508 0176 87F85730 		strb	r3, [r7, #87]
 509 017a 1FE0     		b	.L23
 510              	.L24:
 173:.\LINX.c      ****             debug_str_len = sprintf(debug_str, " %x", response[i]);
 511              		.loc 1 173 0 discriminator 2
 512 017c 97F85730 		ldrb	r3, [r7, #87]	@ zero_extendqisi2
 513 0180 3A68     		ldr	r2, [r7, #0]
 514 0182 D318     		adds	r3, r2, r3
 515 0184 1B78     		ldrb	r3, [r3, #0]	@ zero_extendqisi2
ARM GAS  C:\Users\Mark\AppData\Local\Temp\ccKvac9C.s 			page 14


 516 0186 07F11002 		add	r2, r7, #16
 517 018a 1046     		mov	r0, r2
 518 018c 40F20001 		movw	r1, #:lower16:.LC4
 519 0190 C0F20001 		movt	r1, #:upper16:.LC4
 520 0194 1A46     		mov	r2, r3
 521 0196 FFF7FEFF 		bl	sprintf
 522 019a 0346     		mov	r3, r0
 523 019c 87F85130 		strb	r3, [r7, #81]
 174:.\LINX.c      ****             DEBUG_UART_PutArray(debug_str, debug_str_len);
 524              		.loc 1 174 0 discriminator 2
 525 01a0 07F11002 		add	r2, r7, #16
 526 01a4 97F85130 		ldrb	r3, [r7, #81]	@ zero_extendqisi2
 527 01a8 1046     		mov	r0, r2
 528 01aa 1946     		mov	r1, r3
 529 01ac FFF7FEFF 		bl	DEBUG_UART_PutArray
 172:.\LINX.c      ****         for (i = 0; i < response[1]; ++i) {
 530              		.loc 1 172 0 discriminator 2
 531 01b0 97F85730 		ldrb	r3, [r7, #87]
 532 01b4 03F10103 		add	r3, r3, #1
 533 01b8 87F85730 		strb	r3, [r7, #87]
 534              	.L23:
 172:.\LINX.c      ****         for (i = 0; i < response[1]; ++i) {
 535              		.loc 1 172 0 is_stmt 0 discriminator 1
 536 01bc 3B68     		ldr	r3, [r7, #0]
 537 01be 03F10103 		add	r3, r3, #1
 538 01c2 1B78     		ldrb	r3, [r3, #0]	@ zero_extendqisi2
 539 01c4 97F85720 		ldrb	r2, [r7, #87]	@ zero_extendqisi2
 540 01c8 9A42     		cmp	r2, r3
 541 01ca D7D3     		bcc	.L24
 175:.\LINX.c      ****         }
 176:.\LINX.c      ****         DEBUG_UART_PutString("\r\n");
 542              		.loc 1 176 0 is_stmt 1
 543 01cc 40F20000 		movw	r0, #:lower16:.LC5
 544 01d0 C0F20000 		movt	r0, #:upper16:.LC5
 545 01d4 FFF7FEFF 		bl	DEBUG_UART_PutString
 177:.\LINX.c      ****     #endif
 178:.\LINX.c      **** }
 546              		.loc 1 178 0
 547 01d8 07F15C07 		add	r7, r7, #92
 548 01dc BD46     		mov	sp, r7
 549 01de 90BD     		pop	{r4, r7, pc}
 550              		.cfi_endproc
 551              	.LFE59:
 552              		.size	LINX_ProcessCommand, .-LINX_ProcessCommand
 553              		.section	.rodata
 554 012d 000000   		.align	2
 555              	.LC16:
 556 0130 0953656E 		.ascii	"\011Sending LINX response\015\012\000"
 556      64696E67 
 556      204C494E 
 556      58207265 
 556      73706F6E 
 557 0149 000000   		.section	.text.LINX_SendResponse,"ax",%progbits
 558              		.align	2
 559              		.global	LINX_SendResponse
 560              		.thumb
 561              		.thumb_func
ARM GAS  C:\Users\Mark\AppData\Local\Temp\ccKvac9C.s 			page 15


 562              		.type	LINX_SendResponse, %function
 563              	LINX_SendResponse:
 564              	.LFB60:
 179:.\LINX.c      **** 
 180:.\LINX.c      **** void LINX_SendResponse(uint8 *response) {
 565              		.loc 1 180 0
 566              		.cfi_startproc
 567              		@ args = 0, pretend = 0, frame = 8
 568              		@ frame_needed = 1, uses_anonymous_args = 0
 569 0000 80B5     		push	{r7, lr}
 570              	.LCFI11:
 571              		.cfi_def_cfa_offset 8
 572              		.cfi_offset 7, -8
 573              		.cfi_offset 14, -4
 574 0002 82B0     		sub	sp, sp, #8
 575              	.LCFI12:
 576              		.cfi_def_cfa_offset 16
 577 0004 00AF     		add	r7, sp, #0
 578              	.LCFI13:
 579              		.cfi_def_cfa_register 7
 580 0006 7860     		str	r0, [r7, #4]
 181:.\LINX.c      ****     #ifdef LINX_DEBUG
 182:.\LINX.c      ****         DEBUG_UART_PutString("\tSending LINX response\r\n");
 581              		.loc 1 182 0
 582 0008 40F20000 		movw	r0, #:lower16:.LC16
 583 000c C0F20000 		movt	r0, #:upper16:.LC16
 584 0010 FFF7FEFF 		bl	DEBUG_UART_PutString
 183:.\LINX.c      ****     #endif
 184:.\LINX.c      ****     
 185:.\LINX.c      ****     USBUART_PutData(response, response[1]);
 585              		.loc 1 185 0
 586 0014 7B68     		ldr	r3, [r7, #4]
 587 0016 03F10103 		add	r3, r3, #1
 588 001a 1B78     		ldrb	r3, [r3, #0]	@ zero_extendqisi2
 589 001c 7868     		ldr	r0, [r7, #4]
 590 001e 1946     		mov	r1, r3
 591 0020 FFF7FEFF 		bl	USBUART_PutData
 186:.\LINX.c      **** }
 592              		.loc 1 186 0
 593 0024 07F10807 		add	r7, r7, #8
 594 0028 BD46     		mov	sp, r7
 595 002a 80BD     		pop	{r7, pc}
 596              		.cfi_endproc
 597              	.LFE60:
 598              		.size	LINX_SendResponse, .-LINX_SendResponse
 599              		.text
 600              	.Letext0:
 601              		.file 2 "c:\\program files (x86)\\cypress\\psoc creator\\3.0\\psoc creator\\import\\gnu_cs\\arm\\4
 602              		.file 3 "./Generated_Source/PSoC5/cytypes.h"
 603              		.file 4 "./Generated_Source/PSoC5/core_cm3.h"