ARM GAS  C:\Users\Mark\AppData\Local\Temp\ccSTXpLe.s 			page 1


   1              		.syntax unified
   2              		.cpu cortex-m3
   3              		.fpu softvfp
   4              		.eabi_attribute 20, 1
   5              		.eabi_attribute 21, 1
   6              		.eabi_attribute 23, 3
   7              		.eabi_attribute 24, 1
   8              		.eabi_attribute 25, 1
   9              		.eabi_attribute 26, 1
  10              		.eabi_attribute 30, 6
  11              		.eabi_attribute 34, 1
  12              		.eabi_attribute 18, 4
  13              		.thumb
  14              		.file	"main.c"
  15              		.text
  16              	.Ltext0:
  17              		.cfi_sections	.debug_frame
  18              		.section	.text.main,"ax",%progbits
  19              		.align	2
  20              		.global	main
  21              		.thumb
  22              		.thumb_func
  23              		.type	main, %function
  24              	main:
  25              	.LFB56:
  26              		.file 1 ".\\main.c"
   1:.\main.c      **** /**
   2:.\main.c      **** * \file main.c
   3:.\main.c      **** * \brief This file will receive data from an SPI Master device, and pass it along 
   4:.\main.c      **** *   to mem1.c where data will be returned to the SPI Master when applicable
   5:.\main.c      **** *   
   6:.\main.c      **** *
   7:.\main.c      **** * Version 1.1.2
   8:.\main.c      **** *
   9:.\main.c      **** * \author Brian Bradley
  10:.\main.c      **** *
  11:.\main.c      **** * \bug No known bugs, but I2C is untested
  12:.\main.c      **** *
  13:.\main.c      **** * 
  14:.\main.c      **** *
  15:.\main.c      **** * Copyright Embedit Electronics
  16:.\main.c      **** * 
  17:.\main.c      **** */
  18:.\main.c      **** #include <project.h>
  19:.\main.c      **** //#include <device.h>
  20:.\main.c      **** #include <stdio.h>
  21:.\main.c      **** #include <mem1.h>
  22:.\main.c      **** #include <LINX.h>
  23:.\main.c      **** 
  24:.\main.c      **** #ifdef CY_I2C_I2C_1_H
  25:.\main.c      ****     uint8 WR_buf[I2C_BUFFER_SIZE]; 
  26:.\main.c      ****     uint8 RD_buf[I2C_BUFFER_SIZE] = {0,0,0,0};
  27:.\main.c      **** #endif
  28:.\main.c      **** 
  29:.\main.c      **** int main()
  30:.\main.c      **** {
  27              		.loc 1 30 0
ARM GAS  C:\Users\Mark\AppData\Local\Temp\ccSTXpLe.s 			page 2


  28              		.cfi_startproc
  29              		@ args = 0, pretend = 0, frame = 24
  30              		@ frame_needed = 1, uses_anonymous_args = 0
  31 0000 80B5     		push	{r7, lr}
  32              	.LCFI0:
  33              		.cfi_def_cfa_offset 8
  34              		.cfi_offset 7, -8
  35              		.cfi_offset 14, -4
  36 0002 86B0     		sub	sp, sp, #24
  37              	.LCFI1:
  38              		.cfi_def_cfa_offset 32
  39 0004 00AF     		add	r7, sp, #0
  40              	.LCFI2:
  41              		.cfi_def_cfa_register 7
  31:.\main.c      ****     /* Place your initialization/startup code here (e.g. MyInst_Start()) */
  32:.\main.c      ****     #ifdef CY_SPIS_SPIS_1_H
  33:.\main.c      ****         SPIS_1_Start();
  42              		.loc 1 33 0
  43 0006 FFF7FEFF 		bl	SPIS_1_Start
  34:.\main.c      ****         SPIS_1_ClearFIFO();
  44              		.loc 1 34 0
  45 000a FFF7FEFF 		bl	SPIS_1_ClearFIFO
  35:.\main.c      ****         SPIS_1_ClearRxBuffer();
  46              		.loc 1 35 0
  47 000e FFF7FEFF 		bl	SPIS_1_ClearRxBuffer
  36:.\main.c      ****         SPIS_1_ClearTxBuffer();
  48              		.loc 1 36 0
  49 0012 FFF7FEFF 		bl	SPIS_1_ClearTxBuffer
  37:.\main.c      ****     #endif
  38:.\main.c      **** 
  39:.\main.c      ****     #ifdef CY_I2C_I2C_1_H
  40:.\main.c      ****         I2C_1_SlaveInitReadBuf(RD_buf,  I2C_BUFFER_SIZE);
  41:.\main.c      ****         I2C_1_SlaveInitWriteBuf(WR_buf,  I2C_BUFFER_SIZE);
  42:.\main.c      ****         I2C_1_Start();
  43:.\main.c      ****     #endif
  44:.\main.c      ****     
  45:.\main.c      ****     CyGlobalIntEnable;  /* enable global interrupts. */
  50              		.loc 1 45 0
  51              	@ 45 ".\main.c" 1
  52 0016 62B6     		CPSIE   i
  53              	@ 0 "" 2
  46:.\main.c      ****     
  47:.\main.c      ****     #ifdef LINX_H
  48:.\main.c      ****         LINX_Initialize();
  54              		.loc 1 48 0
  55              		.thumb
  56 0018 FFF7FEFF 		bl	LINX_Initialize
  57 001c 00E0     		b	.L3
  58              	.L4:
  49:.\main.c      ****         
  50:.\main.c      ****         uint8 command[LINX_COMMAND_BUFFER_SIZE];
  51:.\main.c      ****         uint8 command_len;
  52:.\main.c      ****     #endif
  53:.\main.c      ****     
  54:.\main.c      ****     /* Gets data from the Pi and send it to mem1.c*/
  55:.\main.c      ****     for(;;)
  56:.\main.c      ****     {
ARM GAS  C:\Users\Mark\AppData\Local\Temp\ccSTXpLe.s 			page 3


  57:.\main.c      ****         #ifdef LINX_H
  58:.\main.c      ****             if(USBUART_DataIsReady()) {
  59:.\main.c      ****                 if (LINX_GetCommand(command, &command_len)) {
  60:.\main.c      ****                     LINX_ProcessCommand(command, command_len);
  61:.\main.c      ****                 }
  62:.\main.c      ****                 else {
  63:.\main.c      ****                     #ifdef DEBUG_LINX
  64:.\main.c      ****                         DEBUG_UART_PutString("Get command FAILED\r\n");
  65:.\main.c      ****                     #endif
  66:.\main.c      ****                 }
  67:.\main.c      ****             }
  68:.\main.c      ****         #else
  69:.\main.c      ****             uint32 input = ReadFrom_Pi();
  70:.\main.c      ****             
  71:.\main.c      ****             uint8 addr = (input & 0xFF000000)>>24;
  72:.\main.c      ****             uint8 cmd = (input & 0x00FF0000)>>16;
  73:.\main.c      ****             uint8 dat_lo = (input & 0x0000FF00)>>8;
  74:.\main.c      ****             uint8 dat_hi = input & 0x000000FF;
  75:.\main.c      ****             uint16 dat = (dat_hi<<8) | dat_lo;
  76:.\main.c      ****           
  77:.\main.c      ****             readData(addr,cmd,dat); 
  78:.\main.c      ****         #endif
  79:.\main.c      ****         
  80:.\main.c      ****         /*          Add your code here            */
  81:.\main.c      ****         
  82:.\main.c      ****     }
  59              		.loc 1 82 0
  60 001e 00BF     		nop
  61              	.L3:
  58:.\main.c      ****             if(USBUART_DataIsReady()) {
  62              		.loc 1 58 0
  63 0020 FFF7FEFF 		bl	USBUART_DataIsReady
  64 0024 0346     		mov	r3, r0
  65 0026 002B     		cmp	r3, #0
  66 0028 F9D0     		beq	.L4
  59:.\main.c      ****                 if (LINX_GetCommand(command, &command_len)) {
  67              		.loc 1 59 0
  68 002a 07F10802 		add	r2, r7, #8
  69 002e 07F10703 		add	r3, r7, #7
  70 0032 1046     		mov	r0, r2
  71 0034 1946     		mov	r1, r3
  72 0036 FFF7FEFF 		bl	LINX_GetCommand
  73 003a 0346     		mov	r3, r0
  74 003c 002B     		cmp	r3, #0
  75 003e EED0     		beq	.L4
  60:.\main.c      ****                     LINX_ProcessCommand(command, command_len);
  76              		.loc 1 60 0
  77 0040 FB79     		ldrb	r3, [r7, #7]	@ zero_extendqisi2
  78 0042 07F10802 		add	r2, r7, #8
  79 0046 1046     		mov	r0, r2
  80 0048 1946     		mov	r1, r3
  81 004a FFF7FEFF 		bl	LINX_ProcessCommand
  82              		.loc 1 82 0
  83 004e E6E7     		b	.L4
  84              		.cfi_endproc
  85              	.LFE56:
  86              		.size	main, .-main
ARM GAS  C:\Users\Mark\AppData\Local\Temp\ccSTXpLe.s 			page 4


  87              		.section	.text.ReadFrom_Pi,"ax",%progbits
  88              		.align	2
  89              		.global	ReadFrom_Pi
  90              		.thumb
  91              		.thumb_func
  92              		.type	ReadFrom_Pi, %function
  93              	ReadFrom_Pi:
  94              	.LFB57:
  83:.\main.c      **** }
  84:.\main.c      **** 
  85:.\main.c      ****    
  86:.\main.c      **** 
  87:.\main.c      **** 
  88:.\main.c      **** 
  89:.\main.c      **** 
  90:.\main.c      **** 
  91:.\main.c      **** 
  92:.\main.c      **** 
  93:.\main.c      **** 
  94:.\main.c      **** 
  95:.\main.c      **** /****************************************************************************************//**
  96:.\main.c      **** *  @brief receives 4 bytes of data from a Master Device, merges them into a 32 bit number, and
  97:.\main.c      **** *         returns the result
  98:.\main.c      **** *
  99:.\main.c      **** *  @return: 32-bit number which contains all 4 bytes of transferred data, where the MSB is the 
 100:.\main.c      ****             first item received.
 101:.\main.c      **** *
 102:.\main.c      **** *********************************************************************************************/
 103:.\main.c      ****     
 104:.\main.c      ****     uint32 ReadFrom_Pi(void)
 105:.\main.c      ****     {   
  95              		.loc 1 105 0
  96              		.cfi_startproc
  97              		@ args = 0, pretend = 0, frame = 8
  98              		@ frame_needed = 1, uses_anonymous_args = 0
  99 0000 80B5     		push	{r7, lr}
 100              	.LCFI3:
 101              		.cfi_def_cfa_offset 8
 102              		.cfi_offset 7, -8
 103              		.cfi_offset 14, -4
 104 0002 82B0     		sub	sp, sp, #8
 105              	.LCFI4:
 106              		.cfi_def_cfa_offset 16
 107 0004 00AF     		add	r7, sp, #0
 108              	.LCFI5:
 109              		.cfi_def_cfa_register 7
 106:.\main.c      ****         uint8 addr = 0;
 110              		.loc 1 106 0
 111 0006 4FF00003 		mov	r3, #0
 112 000a FB71     		strb	r3, [r7, #7]
 107:.\main.c      ****         uint8 cmd = 0;
 113              		.loc 1 107 0
 114 000c 4FF00003 		mov	r3, #0
 115 0010 BB71     		strb	r3, [r7, #6]
 108:.\main.c      ****         uint8 dat_lo = 0;
 116              		.loc 1 108 0
 117 0012 4FF00003 		mov	r3, #0
ARM GAS  C:\Users\Mark\AppData\Local\Temp\ccSTXpLe.s 			page 5


 118 0016 7B71     		strb	r3, [r7, #5]
 109:.\main.c      ****         uint8 dat_hi = 0;
 119              		.loc 1 109 0
 120 0018 4FF00003 		mov	r3, #0
 121 001c 3B71     		strb	r3, [r7, #4]
 110:.\main.c      ****         
 111:.\main.c      ****         /* SPI READ HANDLER */
 112:.\main.c      ****         #ifdef CY_SPIS_SPIS_1_H
 113:.\main.c      ****             while(!SPIS_1_GetRxBufferSize()){/* Wait until the Rx buffer isn't empty */}
 122              		.loc 1 113 0
 123 001e 00BF     		nop
 124              	.L6:
 125              		.loc 1 113 0 is_stmt 0 discriminator 1
 126 0020 FFF7FEFF 		bl	SPIS_1_GetRxBufferSize
 127 0024 0346     		mov	r3, r0
 128 0026 002B     		cmp	r3, #0
 129 0028 FAD0     		beq	.L6
 114:.\main.c      ****                 addr = SPIS_1_ReadRxData();
 130              		.loc 1 114 0 is_stmt 1
 131 002a FFF7FEFF 		bl	SPIS_1_ReadRxData
 132 002e 0346     		mov	r3, r0
 133 0030 FB71     		strb	r3, [r7, #7]
 115:.\main.c      ****     	    while(!SPIS_1_GetRxBufferSize()){/* Wait until the Rx buffer isn't empty */}
 134              		.loc 1 115 0
 135 0032 00BF     		nop
 136              	.L7:
 137              		.loc 1 115 0 is_stmt 0 discriminator 1
 138 0034 FFF7FEFF 		bl	SPIS_1_GetRxBufferSize
 139 0038 0346     		mov	r3, r0
 140 003a 002B     		cmp	r3, #0
 141 003c FAD0     		beq	.L7
 116:.\main.c      ****     	        cmd = SPIS_1_ReadRxData();
 142              		.loc 1 116 0 is_stmt 1
 143 003e FFF7FEFF 		bl	SPIS_1_ReadRxData
 144 0042 0346     		mov	r3, r0
 145 0044 BB71     		strb	r3, [r7, #6]
 117:.\main.c      ****     	    while(!SPIS_1_GetRxBufferSize()){/* Wait until the Rx buffer isn't empty */}
 146              		.loc 1 117 0
 147 0046 00BF     		nop
 148              	.L8:
 149              		.loc 1 117 0 is_stmt 0 discriminator 1
 150 0048 FFF7FEFF 		bl	SPIS_1_GetRxBufferSize
 151 004c 0346     		mov	r3, r0
 152 004e 002B     		cmp	r3, #0
 153 0050 FAD0     		beq	.L8
 118:.\main.c      ****     	        dat_lo = SPIS_1_ReadRxData();
 154              		.loc 1 118 0 is_stmt 1
 155 0052 FFF7FEFF 		bl	SPIS_1_ReadRxData
 156 0056 0346     		mov	r3, r0
 157 0058 7B71     		strb	r3, [r7, #5]
 119:.\main.c      ****             while(!SPIS_1_GetRxBufferSize()){/* Wait until the Rx buffer isn't empty */}
 158              		.loc 1 119 0
 159 005a 00BF     		nop
 160              	.L9:
 161              		.loc 1 119 0 is_stmt 0 discriminator 1
 162 005c FFF7FEFF 		bl	SPIS_1_GetRxBufferSize
 163 0060 0346     		mov	r3, r0
ARM GAS  C:\Users\Mark\AppData\Local\Temp\ccSTXpLe.s 			page 6


 164 0062 002B     		cmp	r3, #0
 165 0064 FAD0     		beq	.L9
 120:.\main.c      ****     	        dat_hi = SPIS_1_ReadRxData();
 166              		.loc 1 120 0 is_stmt 1
 167 0066 FFF7FEFF 		bl	SPIS_1_ReadRxData
 168 006a 0346     		mov	r3, r0
 169 006c 3B71     		strb	r3, [r7, #4]
 121:.\main.c      ****         #endif
 122:.\main.c      ****       
 123:.\main.c      ****         /* I2C READ HANDLER */
 124:.\main.c      ****         #ifdef CY_I2C_I2C_1_H
 125:.\main.c      ****             while (!I2C_1_SlaveGetWriteBufSize()){}
 126:.\main.c      ****             /* wait until I2C master is not writing or reading from the Buffer */
 127:.\main.c      ****             while (!(I2C_1_SlaveStatus() & I2C_1_SSTAT_WR_CMPLT)){}         
 128:.\main.c      ****                 uint8 byteCount = I2C_1_SlaveGetWriteBufSize(); 
 129:.\main.c      ****            
 130:.\main.c      ****                 addr = WR_buf[0];
 131:.\main.c      ****                 cmd = WR_buf[1];
 132:.\main.c      ****                 dat_lo = WR_buf[2];
 133:.\main.c      ****                 dat_hi = WR_buf[3];
 134:.\main.c      ****                 
 135:.\main.c      ****                 I2C_1_SlaveClearWriteStatus();
 136:.\main.c      ****                 I2C_1_SlaveClearWriteBuf();
 137:.\main.c      ****                 
 138:.\main.c      ****         #endif
 139:.\main.c      ****   
 140:.\main.c      ****         
 141:.\main.c      ****         uint32 input = (((addr<<24)|(cmd<<16))|(dat_lo<<8))|(dat_hi);
 170              		.loc 1 141 0
 171 006e FB79     		ldrb	r3, [r7, #7]	@ zero_extendqisi2
 172 0070 4FEA0362 		lsl	r2, r3, #24
 173 0074 BB79     		ldrb	r3, [r7, #6]	@ zero_extendqisi2
 174 0076 4FEA0343 		lsl	r3, r3, #16
 175 007a 1A43     		orrs	r2, r2, r3
 176 007c 7B79     		ldrb	r3, [r7, #5]	@ zero_extendqisi2
 177 007e 4FEA0323 		lsl	r3, r3, #8
 178 0082 1A43     		orrs	r2, r2, r3
 179 0084 3B79     		ldrb	r3, [r7, #4]	@ zero_extendqisi2
 180 0086 1343     		orrs	r3, r3, r2
 181 0088 3B60     		str	r3, [r7, #0]
 142:.\main.c      ****         return input;
 182              		.loc 1 142 0
 183 008a 3B68     		ldr	r3, [r7, #0]
 143:.\main.c      ****     }
 184              		.loc 1 143 0
 185 008c 1846     		mov	r0, r3
 186 008e 07F10807 		add	r7, r7, #8
 187 0092 BD46     		mov	sp, r7
 188 0094 80BD     		pop	{r7, pc}
 189              		.cfi_endproc
 190              	.LFE57:
 191              		.size	ReadFrom_Pi, .-ReadFrom_Pi
 192 0096 00BF     		.section	.text.WriteTo_Pi,"ax",%progbits
 193              		.align	2
 194              		.global	WriteTo_Pi
 195              		.thumb
 196              		.thumb_func
ARM GAS  C:\Users\Mark\AppData\Local\Temp\ccSTXpLe.s 			page 7


 197              		.type	WriteTo_Pi, %function
 198              	WriteTo_Pi:
 199              	.LFB58:
 144:.\main.c      ****     
 145:.\main.c      **** /****************************************************************************************//**
 146:.\main.c      **** *  @brief Writes data back to the Master device when appropriate. 
 147:.\main.c      **** *
 148:.\main.c      **** *  @param dat: 32-bit number which is to be sent to the Master device. It is split into 4
 149:.\main.c      **** *              individual bytes, and transferred one at a time starting with the lowest byte
 150:.\main.c      **** *
 151:.\main.c      **** *********************************************************************************************/
 152:.\main.c      ****     
 153:.\main.c      ****     void WriteTo_Pi(uint32 dat)
 154:.\main.c      ****     {
 200              		.loc 1 154 0
 201              		.cfi_startproc
 202              		@ args = 0, pretend = 0, frame = 16
 203              		@ frame_needed = 1, uses_anonymous_args = 0
 204 0000 80B5     		push	{r7, lr}
 205              	.LCFI6:
 206              		.cfi_def_cfa_offset 8
 207              		.cfi_offset 7, -8
 208              		.cfi_offset 14, -4
 209 0002 84B0     		sub	sp, sp, #16
 210              	.LCFI7:
 211              		.cfi_def_cfa_offset 24
 212 0004 00AF     		add	r7, sp, #0
 213              	.LCFI8:
 214              		.cfi_def_cfa_register 7
 215 0006 7860     		str	r0, [r7, #4]
 155:.\main.c      ****         
 156:.\main.c      ****         
 157:.\main.c      ****             uint8 out_hi = (dat & 0xFF000000)>>24;
 216              		.loc 1 157 0
 217 0008 7B68     		ldr	r3, [r7, #4]
 218 000a 4FEA1363 		lsr	r3, r3, #24
 219 000e FB73     		strb	r3, [r7, #15]
 158:.\main.c      ****             uint8 out_mid_hi = (dat & 0x00FF0000)>>16;
 220              		.loc 1 158 0
 221 0010 7B68     		ldr	r3, [r7, #4]
 222 0012 03F47F03 		and	r3, r3, #16711680
 223 0016 4FEA1343 		lsr	r3, r3, #16
 224 001a BB73     		strb	r3, [r7, #14]
 159:.\main.c      ****             uint8 out_mid_lo = (dat & 0x0000FF00)>>8;
 225              		.loc 1 159 0
 226 001c 7B68     		ldr	r3, [r7, #4]
 227 001e 03F47F43 		and	r3, r3, #65280
 228 0022 4FEA1323 		lsr	r3, r3, #8
 229 0026 7B73     		strb	r3, [r7, #13]
 160:.\main.c      ****             uint8 out_lo = dat & 0x000000FF;
 230              		.loc 1 160 0
 231 0028 7B68     		ldr	r3, [r7, #4]
 232 002a 3B73     		strb	r3, [r7, #12]
 161:.\main.c      ****         
 162:.\main.c      ****         /* SPI WRITE HANDLER */
 163:.\main.c      ****         #ifdef CY_SPIS_SPIS_1_H
 164:.\main.c      ****             SPIS_1_ClearTxBuffer();
ARM GAS  C:\Users\Mark\AppData\Local\Temp\ccSTXpLe.s 			page 8


 233              		.loc 1 164 0
 234 002c FFF7FEFF 		bl	SPIS_1_ClearTxBuffer
 165:.\main.c      ****             SPIS_1_ClearFIFO();    //Clear the SPI buffers
 235              		.loc 1 165 0
 236 0030 FFF7FEFF 		bl	SPIS_1_ClearFIFO
 166:.\main.c      ****             SPIS_1_ClearRxBuffer();
 237              		.loc 1 166 0
 238 0034 FFF7FEFF 		bl	SPIS_1_ClearRxBuffer
 167:.\main.c      ****             
 168:.\main.c      ****             uint8 SPI_buffer[3] = {out_mid_lo, out_mid_hi, out_hi};
 239              		.loc 1 168 0
 240 0038 7B7B     		ldrb	r3, [r7, #13]
 241 003a 3B72     		strb	r3, [r7, #8]
 242 003c BB7B     		ldrb	r3, [r7, #14]
 243 003e 7B72     		strb	r3, [r7, #9]
 244 0040 FB7B     		ldrb	r3, [r7, #15]
 245 0042 BB72     		strb	r3, [r7, #10]
 169:.\main.c      ****             SPIS_1_WriteTxDataZero(out_lo);
 246              		.loc 1 169 0
 247 0044 3B7B     		ldrb	r3, [r7, #12]	@ zero_extendqisi2
 248 0046 1846     		mov	r0, r3
 249 0048 FFF7FEFF 		bl	SPIS_1_WriteTxDataZero
 170:.\main.c      ****             SPIS_1_PutArray(SPI_buffer, 3);
 250              		.loc 1 170 0
 251 004c 07F10803 		add	r3, r7, #8
 252 0050 1846     		mov	r0, r3
 253 0052 4FF00301 		mov	r1, #3
 254 0056 FFF7FEFF 		bl	SPIS_1_PutArray
 171:.\main.c      ****            
 172:.\main.c      ****             while(!(SPIS_1_ReadTxStatus() & SPIS_1_STS_SPI_DONE)); //Wait until Tx buffer empties  
 255              		.loc 1 172 0
 256 005a 00BF     		nop
 257              	.L12:
 258              		.loc 1 172 0 is_stmt 0 discriminator 1
 259 005c FFF7FEFF 		bl	SPIS_1_ReadTxStatus
 260 0060 0346     		mov	r3, r0
 261 0062 03F00103 		and	r3, r3, #1
 262 0066 002B     		cmp	r3, #0
 263 0068 F8D0     		beq	.L12
 173:.\main.c      ****         #endif
 174:.\main.c      ****         
 175:.\main.c      ****         /* I2C WRITE HANDLER */
 176:.\main.c      ****         #ifdef CY_I2C_I2C_1_H
 177:.\main.c      ****             while (I2C_1_SlaveGetReadBufSize()){}
 178:.\main.c      ****             RD_buf[0] = out_lo;
 179:.\main.c      ****             RD_buf[1] = out_mid_lo;
 180:.\main.c      ****             RD_buf[2] = out_mid_hi;
 181:.\main.c      ****             RD_buf[3] = out_hi;
 182:.\main.c      ****             
 183:.\main.c      ****             /*Wait until read is complete*/
 184:.\main.c      ****             while (0u == (I2C_1_SlaveStatus() & I2C_1_SSTAT_RD_CMPLT)){}
 185:.\main.c      ****                 I2C_1_SlaveClearReadBuf();          /* Clear slave read buffer and status */
 186:.\main.c      ****                 (void) I2C_1_SlaveClearReadStatus();
 187:.\main.c      ****         #endif
 188:.\main.c      ****         
 189:.\main.c      ****     }
 264              		.loc 1 189 0 is_stmt 1
ARM GAS  C:\Users\Mark\AppData\Local\Temp\ccSTXpLe.s 			page 9


 265 006a 07F11007 		add	r7, r7, #16
 266 006e BD46     		mov	sp, r7
 267 0070 80BD     		pop	{r7, pc}
 268              		.cfi_endproc
 269              	.LFE58:
 270              		.size	WriteTo_Pi, .-WriteTo_Pi
 271 0072 00BF     		.text
 272              	.Letext0:
 273              		.file 2 "c:\\program files (x86)\\cypress\\psoc creator\\3.0\\psoc creator\\import\\gnu_cs\\arm\\4
 274              		.file 3 "./Generated_Source/PSoC5/cytypes.h"
 275              		.file 4 "./Generated_Source/PSoC5/core_cm3.h"