ARM GAS  C:\Users\Mark\AppData\Local\Temp\ccKrsdHU.s 			page 1


   1              		.syntax unified
   2              		.cpu cortex-m3
   3              		.fpu softvfp
   4              		.eabi_attribute 20, 1
   5              		.eabi_attribute 21, 1
   6              		.eabi_attribute 23, 3
   7              		.eabi_attribute 24, 1
   8              		.eabi_attribute 25, 1
   9              		.eabi_attribute 26, 1
  10              		.eabi_attribute 30, 6
  11              		.eabi_attribute 34, 1
  12              		.eabi_attribute 18, 4
  13              		.thumb
  14              		.file	"WaveDAC8_1.c"
  15              		.text
  16              	.Ltext0:
  17              		.cfi_sections	.debug_frame
  18              		.global	WaveDAC8_1_initVar
  19              		.bss
  20              		.type	WaveDAC8_1_initVar, %object
  21              		.size	WaveDAC8_1_initVar, 1
  22              	WaveDAC8_1_initVar:
  23 0000 00       		.space	1
  24              		.global	WaveDAC8_1_wave1
  25              		.section	.rodata
  26              		.align	2
  27              		.type	WaveDAC8_1_wave1, %object
  28              		.size	WaveDAC8_1_wave1, 100
  29              	WaveDAC8_1_wave1:
  30 0000 80       		.byte	-128
  31 0001 84       		.byte	-124
  32 0002 8A       		.byte	-118
  33 0003 8F       		.byte	-113
  34 0004 94       		.byte	-108
  35 0005 98       		.byte	-104
  36 0006 9E       		.byte	-98
  37 0007 A2       		.byte	-94
  38 0008 A8       		.byte	-88
  39 0009 AC       		.byte	-84
  40 000a B2       		.byte	-78
  41 000b B6       		.byte	-74
  42 000c BC       		.byte	-68
  43 000d C0       		.byte	-64
  44 000e C6       		.byte	-58
  45 000f CA       		.byte	-54
  46 0010 D0       		.byte	-48
  47 0011 D5       		.byte	-43
  48 0012 DA       		.byte	-38
  49 0013 DE       		.byte	-34
  50 0014 E4       		.byte	-28
  51 0015 E8       		.byte	-24
  52 0016 EE       		.byte	-18
  53 0017 F2       		.byte	-14
  54 0018 F8       		.byte	-8
  55 0019 FC       		.byte	-4
  56 001a F8       		.byte	-8
  57 001b F2       		.byte	-14
ARM GAS  C:\Users\Mark\AppData\Local\Temp\ccKrsdHU.s 			page 2


  58 001c EE       		.byte	-18
  59 001d E8       		.byte	-24
  60 001e E4       		.byte	-28
  61 001f DE       		.byte	-34
  62 0020 DA       		.byte	-38
  63 0021 D4       		.byte	-44
  64 0022 D0       		.byte	-48
  65 0023 CA       		.byte	-54
  66 0024 C6       		.byte	-58
  67 0025 C0       		.byte	-64
  68 0026 BC       		.byte	-68
  69 0027 B6       		.byte	-74
  70 0028 B2       		.byte	-78
  71 0029 AD       		.byte	-83
  72 002a A8       		.byte	-88
  73 002b A2       		.byte	-94
  74 002c 9E       		.byte	-98
  75 002d 98       		.byte	-104
  76 002e 94       		.byte	-108
  77 002f 8F       		.byte	-113
  78 0030 8A       		.byte	-118
  79 0031 84       		.byte	-124
  80 0032 80       		.byte	-128
  81 0033 7A       		.byte	122
  82 0034 76       		.byte	118
  83 0035 70       		.byte	112
  84 0036 6B       		.byte	107
  85 0037 66       		.byte	102
  86 0038 61       		.byte	97
  87 0039 5D       		.byte	93
  88 003a 58       		.byte	88
  89 003b 53       		.byte	83
  90 003c 4E       		.byte	78
  91 003d 49       		.byte	73
  92 003e 44       		.byte	68
  93 003f 3E       		.byte	62
  94 0040 39       		.byte	57
  95 0041 34       		.byte	52
  96 0042 2F       		.byte	47
  97 0043 2A       		.byte	42
  98 0044 25       		.byte	37
  99 0045 21       		.byte	33
 100 0046 1C       		.byte	28
 101 0047 17       		.byte	23
 102 0048 12       		.byte	18
 103 0049 0D       		.byte	13
 104 004a 08       		.byte	8
 105 004b 03       		.byte	3
 106 004c 08       		.byte	8
 107 004d 0D       		.byte	13
 108 004e 12       		.byte	18
 109 004f 17       		.byte	23
 110 0050 1C       		.byte	28
 111 0051 21       		.byte	33
 112 0052 25       		.byte	37
 113 0053 2A       		.byte	42
 114 0054 2F       		.byte	47
ARM GAS  C:\Users\Mark\AppData\Local\Temp\ccKrsdHU.s 			page 3


 115 0055 34       		.byte	52
 116 0056 39       		.byte	57
 117 0057 3E       		.byte	62
 118 0058 44       		.byte	68
 119 0059 49       		.byte	73
 120 005a 4E       		.byte	78
 121 005b 53       		.byte	83
 122 005c 58       		.byte	88
 123 005d 5D       		.byte	93
 124 005e 61       		.byte	97
 125 005f 66       		.byte	102
 126 0060 6B       		.byte	107
 127 0061 70       		.byte	112
 128 0062 76       		.byte	118
 129 0063 7A       		.byte	122
 130              		.global	WaveDAC8_1_wave2
 131              		.align	2
 132              		.type	WaveDAC8_1_wave2, %object
 133              		.size	WaveDAC8_1_wave2, 100
 134              	WaveDAC8_1_wave2:
 135 0064 80       		.byte	-128
 136 0065 87       		.byte	-121
 137 0066 8F       		.byte	-113
 138 0067 97       		.byte	-105
 139 0068 9F       		.byte	-97
 140 0069 A6       		.byte	-90
 141 006a AE       		.byte	-82
 142 006b B5       		.byte	-75
 143 006c BC       		.byte	-68
 144 006d C2       		.byte	-62
 145 006e C9       		.byte	-55
 146 006f CF       		.byte	-49
 147 0070 D5       		.byte	-43
 148 0071 DB       		.byte	-37
 149 0072 E0       		.byte	-32
 150 0073 E5       		.byte	-27
 151 0074 E9       		.byte	-23
 152 0075 ED       		.byte	-19
 153 0076 F1       		.byte	-15
 154 0077 F4       		.byte	-12
 155 0078 F6       		.byte	-10
 156 0079 F9       		.byte	-7
 157 007a FA       		.byte	-6
 158 007b FC       		.byte	-4
 159 007c FC       		.byte	-4
 160 007d FC       		.byte	-4
 161 007e FC       		.byte	-4
 162 007f FC       		.byte	-4
 163 0080 FA       		.byte	-6
 164 0081 F9       		.byte	-7
 165 0082 F6       		.byte	-10
 166 0083 F4       		.byte	-12
 167 0084 F1       		.byte	-15
 168 0085 ED       		.byte	-19
 169 0086 E9       		.byte	-23
 170 0087 E5       		.byte	-27
 171 0088 E0       		.byte	-32
ARM GAS  C:\Users\Mark\AppData\Local\Temp\ccKrsdHU.s 			page 4


 172 0089 DB       		.byte	-37
 173 008a D5       		.byte	-43
 174 008b CF       		.byte	-49
 175 008c C9       		.byte	-55
 176 008d C2       		.byte	-62
 177 008e BC       		.byte	-68
 178 008f B5       		.byte	-75
 179 0090 AE       		.byte	-82
 180 0091 A6       		.byte	-90
 181 0092 9F       		.byte	-97
 182 0093 97       		.byte	-105
 183 0094 8F       		.byte	-113
 184 0095 87       		.byte	-121
 185 0096 80       		.byte	-128
 186 0097 78       		.byte	120
 187 0098 70       		.byte	112
 188 0099 68       		.byte	104
 189 009a 60       		.byte	96
 190 009b 59       		.byte	89
 191 009c 51       		.byte	81
 192 009d 4A       		.byte	74
 193 009e 43       		.byte	67
 194 009f 3D       		.byte	61
 195 00a0 36       		.byte	54
 196 00a1 30       		.byte	48
 197 00a2 2A       		.byte	42
 198 00a3 24       		.byte	36
 199 00a4 1F       		.byte	31
 200 00a5 1A       		.byte	26
 201 00a6 16       		.byte	22
 202 00a7 12       		.byte	18
 203 00a8 0E       		.byte	14
 204 00a9 0B       		.byte	11
 205 00aa 09       		.byte	9
 206 00ab 06       		.byte	6
 207 00ac 05       		.byte	5
 208 00ad 03       		.byte	3
 209 00ae 03       		.byte	3
 210 00af 03       		.byte	3
 211 00b0 03       		.byte	3
 212 00b1 03       		.byte	3
 213 00b2 05       		.byte	5
 214 00b3 06       		.byte	6
 215 00b4 09       		.byte	9
 216 00b5 0B       		.byte	11
 217 00b6 0E       		.byte	14
 218 00b7 12       		.byte	18
 219 00b8 16       		.byte	22
 220 00b9 1A       		.byte	26
 221 00ba 1F       		.byte	31
 222 00bb 24       		.byte	36
 223 00bc 2A       		.byte	42
 224 00bd 30       		.byte	48
 225 00be 36       		.byte	54
 226 00bf 3D       		.byte	61
 227 00c0 43       		.byte	67
 228 00c1 4A       		.byte	74
ARM GAS  C:\Users\Mark\AppData\Local\Temp\ccKrsdHU.s 			page 5


 229 00c2 51       		.byte	81
 230 00c3 59       		.byte	89
 231 00c4 60       		.byte	96
 232 00c5 68       		.byte	104
 233 00c6 70       		.byte	112
 234 00c7 78       		.byte	120
 235              		.bss
 236              	WaveDAC8_1_Wave1Chan:
 237 0001 00       		.space	1
 238              	WaveDAC8_1_Wave2Chan:
 239 0002 00       		.space	1
 240              	WaveDAC8_1_Wave1TD:
 241 0003 00       		.space	1
 242              	WaveDAC8_1_Wave2TD:
 243 0004 00       		.space	1
 244              		.section	.text.WaveDAC8_1_Init,"ax",%progbits
 245              		.align	2
 246              		.global	WaveDAC8_1_Init
 247              		.thumb
 248              		.thumb_func
 249              		.type	WaveDAC8_1_Init, %function
 250              	WaveDAC8_1_Init:
 251              	.LFB0:
 252              		.file 1 ".\\Generated_Source\\PSoC5\\WaveDAC8_1.c"
   1:.\Generated_Source\PSoC5/WaveDAC8_1.c **** /*******************************************************************************
   2:.\Generated_Source\PSoC5/WaveDAC8_1.c **** * File Name: WaveDAC8_1.c
   3:.\Generated_Source\PSoC5/WaveDAC8_1.c **** * Version 2.0
   4:.\Generated_Source\PSoC5/WaveDAC8_1.c **** *
   5:.\Generated_Source\PSoC5/WaveDAC8_1.c **** * Description:
   6:.\Generated_Source\PSoC5/WaveDAC8_1.c **** *  This file provides the source code for the 8-bit Waveform DAC 
   7:.\Generated_Source\PSoC5/WaveDAC8_1.c **** *  (WaveDAC8) Component.
   8:.\Generated_Source\PSoC5/WaveDAC8_1.c **** *
   9:.\Generated_Source\PSoC5/WaveDAC8_1.c **** ********************************************************************************
  10:.\Generated_Source\PSoC5/WaveDAC8_1.c **** * Copyright 2013, Cypress Semiconductor Corporation.  All rights reserved.
  11:.\Generated_Source\PSoC5/WaveDAC8_1.c **** * You may use this file only in accordance with the license, terms, conditions,
  12:.\Generated_Source\PSoC5/WaveDAC8_1.c **** * disclaimers, and limitations in the end user license agreement accompanying
  13:.\Generated_Source\PSoC5/WaveDAC8_1.c **** * the software package with which this file was provided.
  14:.\Generated_Source\PSoC5/WaveDAC8_1.c **** *******************************************************************************/
  15:.\Generated_Source\PSoC5/WaveDAC8_1.c **** 
  16:.\Generated_Source\PSoC5/WaveDAC8_1.c **** #include "WaveDAC8_1.h"
  17:.\Generated_Source\PSoC5/WaveDAC8_1.c **** 
  18:.\Generated_Source\PSoC5/WaveDAC8_1.c **** uint8  WaveDAC8_1_initVar = 0u;
  19:.\Generated_Source\PSoC5/WaveDAC8_1.c **** 
  20:.\Generated_Source\PSoC5/WaveDAC8_1.c **** const uint8 CYCODE WaveDAC8_1_wave1[WaveDAC8_1_WAVE1_LENGTH] = { 128u,132u,138u,143u,148u,152u,158u
  21:.\Generated_Source\PSoC5/WaveDAC8_1.c **** const uint8 CYCODE WaveDAC8_1_wave2[WaveDAC8_1_WAVE2_LENGTH] = { 128u,135u,143u,151u,159u,166u,174u
  22:.\Generated_Source\PSoC5/WaveDAC8_1.c **** 
  23:.\Generated_Source\PSoC5/WaveDAC8_1.c **** static uint8  WaveDAC8_1_Wave1Chan;
  24:.\Generated_Source\PSoC5/WaveDAC8_1.c **** static uint8  WaveDAC8_1_Wave2Chan;
  25:.\Generated_Source\PSoC5/WaveDAC8_1.c **** static uint8  WaveDAC8_1_Wave1TD;
  26:.\Generated_Source\PSoC5/WaveDAC8_1.c **** static uint8  WaveDAC8_1_Wave2TD;
  27:.\Generated_Source\PSoC5/WaveDAC8_1.c **** 
  28:.\Generated_Source\PSoC5/WaveDAC8_1.c **** 
  29:.\Generated_Source\PSoC5/WaveDAC8_1.c **** /*******************************************************************************
  30:.\Generated_Source\PSoC5/WaveDAC8_1.c **** * Function Name: WaveDAC8_1_Init
  31:.\Generated_Source\PSoC5/WaveDAC8_1.c **** ********************************************************************************
  32:.\Generated_Source\PSoC5/WaveDAC8_1.c **** *
  33:.\Generated_Source\PSoC5/WaveDAC8_1.c **** * Summary:
ARM GAS  C:\Users\Mark\AppData\Local\Temp\ccKrsdHU.s 			page 6


  34:.\Generated_Source\PSoC5/WaveDAC8_1.c **** *  Initializes component with parameters set in the customizer.
  35:.\Generated_Source\PSoC5/WaveDAC8_1.c **** *
  36:.\Generated_Source\PSoC5/WaveDAC8_1.c **** * Parameters:  
  37:.\Generated_Source\PSoC5/WaveDAC8_1.c **** *  None
  38:.\Generated_Source\PSoC5/WaveDAC8_1.c **** *
  39:.\Generated_Source\PSoC5/WaveDAC8_1.c **** * Return: 
  40:.\Generated_Source\PSoC5/WaveDAC8_1.c **** *  None
  41:.\Generated_Source\PSoC5/WaveDAC8_1.c **** *
  42:.\Generated_Source\PSoC5/WaveDAC8_1.c **** *******************************************************************************/
  43:.\Generated_Source\PSoC5/WaveDAC8_1.c **** void WaveDAC8_1_Init(void) 
  44:.\Generated_Source\PSoC5/WaveDAC8_1.c **** {
 253              		.loc 1 44 0
 254              		.cfi_startproc
 255              		@ args = 0, pretend = 0, frame = 0
 256              		@ frame_needed = 1, uses_anonymous_args = 0
 257 0000 80B5     		push	{r7, lr}
 258              	.LCFI0:
 259              		.cfi_def_cfa_offset 8
 260              		.cfi_offset 7, -8
 261              		.cfi_offset 14, -4
 262 0002 00AF     		add	r7, sp, #0
 263              	.LCFI1:
 264              		.cfi_def_cfa_register 7
  45:.\Generated_Source\PSoC5/WaveDAC8_1.c **** 	WaveDAC8_1_VDAC8_Init();
 265              		.loc 1 45 0
 266 0004 FFF7FEFF 		bl	WaveDAC8_1_VDAC8_Init
  46:.\Generated_Source\PSoC5/WaveDAC8_1.c **** 	WaveDAC8_1_VDAC8_SetSpeed(WaveDAC8_1_HIGHSPEED);
 267              		.loc 1 46 0
 268 0008 4FF00200 		mov	r0, #2
 269 000c FFF7FEFF 		bl	WaveDAC8_1_VDAC8_SetSpeed
  47:.\Generated_Source\PSoC5/WaveDAC8_1.c **** 	WaveDAC8_1_VDAC8_SetRange(WaveDAC8_1_DAC_RANGE);
 270              		.loc 1 47 0
 271 0010 4FF00400 		mov	r0, #4
 272 0014 FFF7FEFF 		bl	WaveDAC8_1_VDAC8_SetRange
  48:.\Generated_Source\PSoC5/WaveDAC8_1.c **** 
  49:.\Generated_Source\PSoC5/WaveDAC8_1.c **** 	#if(WaveDAC8_1_DAC_MODE == WaveDAC8_1_CURRENT_MODE)
  50:.\Generated_Source\PSoC5/WaveDAC8_1.c **** 		WaveDAC8_1_IDAC8_SetPolarity(WaveDAC8_1_DAC_POL);
  51:.\Generated_Source\PSoC5/WaveDAC8_1.c **** 	#endif /* WaveDAC8_1_DAC_MODE == WaveDAC8_1_CURRENT_MODE */
  52:.\Generated_Source\PSoC5/WaveDAC8_1.c **** 
  53:.\Generated_Source\PSoC5/WaveDAC8_1.c **** 	#if(WaveDAC8_1_OUT_MODE == WaveDAC8_1_BUFFER_MODE)
  54:.\Generated_Source\PSoC5/WaveDAC8_1.c **** 	   WaveDAC8_1_BuffAmp_Init();
 273              		.loc 1 54 0
 274 0018 FFF7FEFF 		bl	WaveDAC8_1_BuffAmp_Init
  55:.\Generated_Source\PSoC5/WaveDAC8_1.c **** 	#endif /* WaveDAC8_1_OUT_MODE == WaveDAC8_1_BUFFER_MODE */
  56:.\Generated_Source\PSoC5/WaveDAC8_1.c **** 
  57:.\Generated_Source\PSoC5/WaveDAC8_1.c **** 	/* Get the TD Number for the DMA channel 1 and 2   */
  58:.\Generated_Source\PSoC5/WaveDAC8_1.c **** 	WaveDAC8_1_Wave1TD = CyDmaTdAllocate();
 275              		.loc 1 58 0
 276 001c FFF7FEFF 		bl	CyDmaTdAllocate
 277 0020 0346     		mov	r3, r0
 278 0022 1A46     		mov	r2, r3
 279 0024 40F20003 		movw	r3, #:lower16:WaveDAC8_1_Wave1TD
 280 0028 C0F20003 		movt	r3, #:upper16:WaveDAC8_1_Wave1TD
 281 002c 1A70     		strb	r2, [r3, #0]
  59:.\Generated_Source\PSoC5/WaveDAC8_1.c **** 	WaveDAC8_1_Wave2TD = CyDmaTdAllocate();
 282              		.loc 1 59 0
 283 002e FFF7FEFF 		bl	CyDmaTdAllocate
ARM GAS  C:\Users\Mark\AppData\Local\Temp\ccKrsdHU.s 			page 7


 284 0032 0346     		mov	r3, r0
 285 0034 1A46     		mov	r2, r3
 286 0036 40F20003 		movw	r3, #:lower16:WaveDAC8_1_Wave2TD
 287 003a C0F20003 		movt	r3, #:upper16:WaveDAC8_1_Wave2TD
 288 003e 1A70     		strb	r2, [r3, #0]
  60:.\Generated_Source\PSoC5/WaveDAC8_1.c **** 	
  61:.\Generated_Source\PSoC5/WaveDAC8_1.c **** 	/* Initialize waveform pointers  */
  62:.\Generated_Source\PSoC5/WaveDAC8_1.c **** 	WaveDAC8_1_Wave1Setup(WaveDAC8_1_wave1, WaveDAC8_1_WAVE1_LENGTH) ;
 289              		.loc 1 62 0
 290 0040 40F20000 		movw	r0, #:lower16:WaveDAC8_1_wave1
 291 0044 C0F20000 		movt	r0, #:upper16:WaveDAC8_1_wave1
 292 0048 4FF06401 		mov	r1, #100
 293 004c FFF7FEFF 		bl	WaveDAC8_1_Wave1Setup
  63:.\Generated_Source\PSoC5/WaveDAC8_1.c **** 	WaveDAC8_1_Wave2Setup(WaveDAC8_1_wave2, WaveDAC8_1_WAVE2_LENGTH) ;
 294              		.loc 1 63 0
 295 0050 40F20000 		movw	r0, #:lower16:WaveDAC8_1_wave2
 296 0054 C0F20000 		movt	r0, #:upper16:WaveDAC8_1_wave2
 297 0058 4FF06401 		mov	r1, #100
 298 005c FFF7FEFF 		bl	WaveDAC8_1_Wave2Setup
  64:.\Generated_Source\PSoC5/WaveDAC8_1.c **** 	
  65:.\Generated_Source\PSoC5/WaveDAC8_1.c **** 	/* Initialize the internal clock if one present  */
  66:.\Generated_Source\PSoC5/WaveDAC8_1.c **** 	#if defined(WaveDAC8_1_DacClk_PHASE)
  67:.\Generated_Source\PSoC5/WaveDAC8_1.c **** 	   WaveDAC8_1_DacClk_SetPhase(WaveDAC8_1_CLK_PHASE_0nS);
  68:.\Generated_Source\PSoC5/WaveDAC8_1.c **** 	#endif /* defined(WaveDAC8_1_DacClk_PHASE) */
  69:.\Generated_Source\PSoC5/WaveDAC8_1.c **** }
 299              		.loc 1 69 0
 300 0060 80BD     		pop	{r7, pc}
 301              		.cfi_endproc
 302              	.LFE0:
 303              		.size	WaveDAC8_1_Init, .-WaveDAC8_1_Init
 304 0062 00BF     		.section	.text.WaveDAC8_1_Enable,"ax",%progbits
 305              		.align	2
 306              		.global	WaveDAC8_1_Enable
 307              		.thumb
 308              		.thumb_func
 309              		.type	WaveDAC8_1_Enable, %function
 310              	WaveDAC8_1_Enable:
 311              	.LFB1:
  70:.\Generated_Source\PSoC5/WaveDAC8_1.c **** 
  71:.\Generated_Source\PSoC5/WaveDAC8_1.c **** 
  72:.\Generated_Source\PSoC5/WaveDAC8_1.c **** /*******************************************************************************
  73:.\Generated_Source\PSoC5/WaveDAC8_1.c **** * Function Name: WaveDAC8_1_Enable
  74:.\Generated_Source\PSoC5/WaveDAC8_1.c **** ********************************************************************************
  75:.\Generated_Source\PSoC5/WaveDAC8_1.c **** *  
  76:.\Generated_Source\PSoC5/WaveDAC8_1.c **** * Summary: 
  77:.\Generated_Source\PSoC5/WaveDAC8_1.c **** *  Enables the DAC block and DMA operation.
  78:.\Generated_Source\PSoC5/WaveDAC8_1.c **** *
  79:.\Generated_Source\PSoC5/WaveDAC8_1.c **** * Parameters:  
  80:.\Generated_Source\PSoC5/WaveDAC8_1.c **** *  None
  81:.\Generated_Source\PSoC5/WaveDAC8_1.c **** *
  82:.\Generated_Source\PSoC5/WaveDAC8_1.c **** * Return: 
  83:.\Generated_Source\PSoC5/WaveDAC8_1.c **** *  None
  84:.\Generated_Source\PSoC5/WaveDAC8_1.c **** *
  85:.\Generated_Source\PSoC5/WaveDAC8_1.c **** *******************************************************************************/
  86:.\Generated_Source\PSoC5/WaveDAC8_1.c **** void WaveDAC8_1_Enable(void) 
  87:.\Generated_Source\PSoC5/WaveDAC8_1.c **** {
 312              		.loc 1 87 0
ARM GAS  C:\Users\Mark\AppData\Local\Temp\ccKrsdHU.s 			page 8


 313              		.cfi_startproc
 314              		@ args = 0, pretend = 0, frame = 0
 315              		@ frame_needed = 1, uses_anonymous_args = 0
 316 0000 80B5     		push	{r7, lr}
 317              	.LCFI2:
 318              		.cfi_def_cfa_offset 8
 319              		.cfi_offset 7, -8
 320              		.cfi_offset 14, -4
 321 0002 00AF     		add	r7, sp, #0
 322              	.LCFI3:
 323              		.cfi_def_cfa_register 7
  88:.\Generated_Source\PSoC5/WaveDAC8_1.c **** 	WaveDAC8_1_VDAC8_Enable();
 324              		.loc 1 88 0
 325 0004 FFF7FEFF 		bl	WaveDAC8_1_VDAC8_Enable
  89:.\Generated_Source\PSoC5/WaveDAC8_1.c **** 
  90:.\Generated_Source\PSoC5/WaveDAC8_1.c **** 	#if(WaveDAC8_1_OUT_MODE == WaveDAC8_1_BUFFER_MODE)
  91:.\Generated_Source\PSoC5/WaveDAC8_1.c **** 	   WaveDAC8_1_BuffAmp_Enable();
 326              		.loc 1 91 0
 327 0008 FFF7FEFF 		bl	WaveDAC8_1_BuffAmp_Enable
  92:.\Generated_Source\PSoC5/WaveDAC8_1.c **** 	#endif /* WaveDAC8_1_OUT_MODE == WaveDAC8_1_BUFFER_MODE */
  93:.\Generated_Source\PSoC5/WaveDAC8_1.c **** 
  94:.\Generated_Source\PSoC5/WaveDAC8_1.c **** 	/* 
  95:.\Generated_Source\PSoC5/WaveDAC8_1.c **** 	* Enable the channel. It is configured to remember the TD value so that
  96:.\Generated_Source\PSoC5/WaveDAC8_1.c **** 	* it can be restored from the place where it has been stopped.
  97:.\Generated_Source\PSoC5/WaveDAC8_1.c **** 	*/
  98:.\Generated_Source\PSoC5/WaveDAC8_1.c **** 	(void)CyDmaChEnable(WaveDAC8_1_Wave1Chan, 1u);
 328              		.loc 1 98 0
 329 000c 40F20003 		movw	r3, #:lower16:WaveDAC8_1_Wave1Chan
 330 0010 C0F20003 		movt	r3, #:upper16:WaveDAC8_1_Wave1Chan
 331 0014 1B78     		ldrb	r3, [r3, #0]	@ zero_extendqisi2
 332 0016 1846     		mov	r0, r3
 333 0018 4FF00101 		mov	r1, #1
 334 001c FFF7FEFF 		bl	CyDmaChEnable
  99:.\Generated_Source\PSoC5/WaveDAC8_1.c **** 	(void)CyDmaChEnable(WaveDAC8_1_Wave2Chan, 1u);
 335              		.loc 1 99 0
 336 0020 40F20003 		movw	r3, #:lower16:WaveDAC8_1_Wave2Chan
 337 0024 C0F20003 		movt	r3, #:upper16:WaveDAC8_1_Wave2Chan
 338 0028 1B78     		ldrb	r3, [r3, #0]	@ zero_extendqisi2
 339 002a 1846     		mov	r0, r3
 340 002c 4FF00101 		mov	r1, #1
 341 0030 FFF7FEFF 		bl	CyDmaChEnable
 100:.\Generated_Source\PSoC5/WaveDAC8_1.c **** 	
 101:.\Generated_Source\PSoC5/WaveDAC8_1.c **** 	/* set the initial value */
 102:.\Generated_Source\PSoC5/WaveDAC8_1.c **** 	WaveDAC8_1_SetValue(0u);
 342              		.loc 1 102 0
 343 0034 4FF00000 		mov	r0, #0
 344 0038 FFF7FEFF 		bl	WaveDAC8_1_VDAC8_SetValue
 103:.\Generated_Source\PSoC5/WaveDAC8_1.c **** 	
 104:.\Generated_Source\PSoC5/WaveDAC8_1.c **** 	#if(WaveDAC8_1_CLOCK_SRC == WaveDAC8_1_CLOCK_INT)  	
 105:.\Generated_Source\PSoC5/WaveDAC8_1.c **** 	   WaveDAC8_1_DacClk_Start();
 345              		.loc 1 105 0
 346 003c FFF7FEFF 		bl	WaveDAC8_1_DacClk_Start
 106:.\Generated_Source\PSoC5/WaveDAC8_1.c **** 	#endif /* WaveDAC8_1_CLOCK_SRC == WaveDAC8_1_CLOCK_INT */
 107:.\Generated_Source\PSoC5/WaveDAC8_1.c **** }
 347              		.loc 1 107 0
 348 0040 80BD     		pop	{r7, pc}
 349              		.cfi_endproc
ARM GAS  C:\Users\Mark\AppData\Local\Temp\ccKrsdHU.s 			page 9


 350              	.LFE1:
 351              		.size	WaveDAC8_1_Enable, .-WaveDAC8_1_Enable
 352 0042 00BF     		.section	.text.WaveDAC8_1_Start,"ax",%progbits
 353              		.align	2
 354              		.global	WaveDAC8_1_Start
 355              		.thumb
 356              		.thumb_func
 357              		.type	WaveDAC8_1_Start, %function
 358              	WaveDAC8_1_Start:
 359              	.LFB2:
 108:.\Generated_Source\PSoC5/WaveDAC8_1.c **** 
 109:.\Generated_Source\PSoC5/WaveDAC8_1.c **** 
 110:.\Generated_Source\PSoC5/WaveDAC8_1.c **** /*******************************************************************************
 111:.\Generated_Source\PSoC5/WaveDAC8_1.c **** * Function Name: WaveDAC8_1_Start
 112:.\Generated_Source\PSoC5/WaveDAC8_1.c **** ********************************************************************************
 113:.\Generated_Source\PSoC5/WaveDAC8_1.c **** *
 114:.\Generated_Source\PSoC5/WaveDAC8_1.c **** * Summary:
 115:.\Generated_Source\PSoC5/WaveDAC8_1.c **** *  The start function initializes the voltage DAC with the default values, 
 116:.\Generated_Source\PSoC5/WaveDAC8_1.c **** *  and sets the power to the given level.  A power level of 0, is the same as 
 117:.\Generated_Source\PSoC5/WaveDAC8_1.c **** *  executing the stop function.
 118:.\Generated_Source\PSoC5/WaveDAC8_1.c **** *
 119:.\Generated_Source\PSoC5/WaveDAC8_1.c **** * Parameters:  
 120:.\Generated_Source\PSoC5/WaveDAC8_1.c **** *  None
 121:.\Generated_Source\PSoC5/WaveDAC8_1.c **** *
 122:.\Generated_Source\PSoC5/WaveDAC8_1.c **** * Return: 
 123:.\Generated_Source\PSoC5/WaveDAC8_1.c **** *  None
 124:.\Generated_Source\PSoC5/WaveDAC8_1.c **** *
 125:.\Generated_Source\PSoC5/WaveDAC8_1.c **** * Reentrant:
 126:.\Generated_Source\PSoC5/WaveDAC8_1.c **** *  No
 127:.\Generated_Source\PSoC5/WaveDAC8_1.c **** *
 128:.\Generated_Source\PSoC5/WaveDAC8_1.c **** *******************************************************************************/
 129:.\Generated_Source\PSoC5/WaveDAC8_1.c **** void WaveDAC8_1_Start(void) 
 130:.\Generated_Source\PSoC5/WaveDAC8_1.c **** {
 360              		.loc 1 130 0
 361              		.cfi_startproc
 362              		@ args = 0, pretend = 0, frame = 0
 363              		@ frame_needed = 1, uses_anonymous_args = 0
 364 0000 80B5     		push	{r7, lr}
 365              	.LCFI4:
 366              		.cfi_def_cfa_offset 8
 367              		.cfi_offset 7, -8
 368              		.cfi_offset 14, -4
 369 0002 00AF     		add	r7, sp, #0
 370              	.LCFI5:
 371              		.cfi_def_cfa_register 7
 131:.\Generated_Source\PSoC5/WaveDAC8_1.c **** 	/* If not Initialized then initialize all required hardware and software */
 132:.\Generated_Source\PSoC5/WaveDAC8_1.c **** 	if(WaveDAC8_1_initVar == 0u)
 372              		.loc 1 132 0
 373 0004 40F20003 		movw	r3, #:lower16:WaveDAC8_1_initVar
 374 0008 C0F20003 		movt	r3, #:upper16:WaveDAC8_1_initVar
 375 000c 1B78     		ldrb	r3, [r3, #0]	@ zero_extendqisi2
 376 000e 002B     		cmp	r3, #0
 377 0010 08D1     		bne	.L4
 133:.\Generated_Source\PSoC5/WaveDAC8_1.c **** 	{
 134:.\Generated_Source\PSoC5/WaveDAC8_1.c **** 		WaveDAC8_1_Init();
 378              		.loc 1 134 0
 379 0012 FFF7FEFF 		bl	WaveDAC8_1_Init
ARM GAS  C:\Users\Mark\AppData\Local\Temp\ccKrsdHU.s 			page 10


 135:.\Generated_Source\PSoC5/WaveDAC8_1.c **** 		WaveDAC8_1_initVar = 1u;
 380              		.loc 1 135 0
 381 0016 40F20003 		movw	r3, #:lower16:WaveDAC8_1_initVar
 382 001a C0F20003 		movt	r3, #:upper16:WaveDAC8_1_initVar
 383 001e 4FF00102 		mov	r2, #1
 384 0022 1A70     		strb	r2, [r3, #0]
 385              	.L4:
 136:.\Generated_Source\PSoC5/WaveDAC8_1.c **** 	}
 137:.\Generated_Source\PSoC5/WaveDAC8_1.c **** 	
 138:.\Generated_Source\PSoC5/WaveDAC8_1.c **** 	WaveDAC8_1_Enable();
 386              		.loc 1 138 0
 387 0024 FFF7FEFF 		bl	WaveDAC8_1_Enable
 139:.\Generated_Source\PSoC5/WaveDAC8_1.c **** }
 388              		.loc 1 139 0
 389 0028 80BD     		pop	{r7, pc}
 390              		.cfi_endproc
 391              	.LFE2:
 392              		.size	WaveDAC8_1_Start, .-WaveDAC8_1_Start
 393 002a 00BF     		.section	.text.WaveDAC8_1_StartEx,"ax",%progbits
 394              		.align	2
 395              		.global	WaveDAC8_1_StartEx
 396              		.thumb
 397              		.thumb_func
 398              		.type	WaveDAC8_1_StartEx, %function
 399              	WaveDAC8_1_StartEx:
 400              	.LFB3:
 140:.\Generated_Source\PSoC5/WaveDAC8_1.c **** 
 141:.\Generated_Source\PSoC5/WaveDAC8_1.c **** 
 142:.\Generated_Source\PSoC5/WaveDAC8_1.c **** /*******************************************************************************
 143:.\Generated_Source\PSoC5/WaveDAC8_1.c **** * Function Name: WaveDAC8_1_StartEx
 144:.\Generated_Source\PSoC5/WaveDAC8_1.c **** ********************************************************************************
 145:.\Generated_Source\PSoC5/WaveDAC8_1.c **** *
 146:.\Generated_Source\PSoC5/WaveDAC8_1.c **** * Summary:
 147:.\Generated_Source\PSoC5/WaveDAC8_1.c **** *  The StartEx function sets pointers and sizes for both waveforms
 148:.\Generated_Source\PSoC5/WaveDAC8_1.c **** *  and then starts the component.
 149:.\Generated_Source\PSoC5/WaveDAC8_1.c **** *
 150:.\Generated_Source\PSoC5/WaveDAC8_1.c **** * Parameters:  
 151:.\Generated_Source\PSoC5/WaveDAC8_1.c **** *   uint8 * wavePtr1:     Pointer to the waveform 1 array.
 152:.\Generated_Source\PSoC5/WaveDAC8_1.c **** *   uint16  sampleSize1:  The amount of samples in the waveform 1.
 153:.\Generated_Source\PSoC5/WaveDAC8_1.c **** *   uint8 * wavePtr2:     Pointer to the waveform 2 array.
 154:.\Generated_Source\PSoC5/WaveDAC8_1.c **** *   uint16  sampleSize2:  The amount of samples in the waveform 2.
 155:.\Generated_Source\PSoC5/WaveDAC8_1.c **** *
 156:.\Generated_Source\PSoC5/WaveDAC8_1.c **** * Return: 
 157:.\Generated_Source\PSoC5/WaveDAC8_1.c **** *  None
 158:.\Generated_Source\PSoC5/WaveDAC8_1.c **** *
 159:.\Generated_Source\PSoC5/WaveDAC8_1.c **** * Reentrant:
 160:.\Generated_Source\PSoC5/WaveDAC8_1.c **** *  No
 161:.\Generated_Source\PSoC5/WaveDAC8_1.c **** *
 162:.\Generated_Source\PSoC5/WaveDAC8_1.c **** *******************************************************************************/
 163:.\Generated_Source\PSoC5/WaveDAC8_1.c **** void WaveDAC8_1_StartEx(const uint8 * wavePtr1, uint16 sampleSize1, const uint8 * wavePtr2, uint16 
 164:.\Generated_Source\PSoC5/WaveDAC8_1.c **** 
 165:.\Generated_Source\PSoC5/WaveDAC8_1.c **** {
 401              		.loc 1 165 0
 402              		.cfi_startproc
 403              		@ args = 0, pretend = 0, frame = 16
 404              		@ frame_needed = 1, uses_anonymous_args = 0
 405 0000 80B5     		push	{r7, lr}
ARM GAS  C:\Users\Mark\AppData\Local\Temp\ccKrsdHU.s 			page 11


 406              	.LCFI6:
 407              		.cfi_def_cfa_offset 8
 408              		.cfi_offset 7, -8
 409              		.cfi_offset 14, -4
 410 0002 84B0     		sub	sp, sp, #16
 411              	.LCFI7:
 412              		.cfi_def_cfa_offset 24
 413 0004 00AF     		add	r7, sp, #0
 414              	.LCFI8:
 415              		.cfi_def_cfa_register 7
 416 0006 F860     		str	r0, [r7, #12]
 417 0008 7A60     		str	r2, [r7, #4]
 418 000a 0A46     		mov	r2, r1	@ movhi
 419 000c 7A81     		strh	r2, [r7, #10]	@ movhi
 420 000e 3B81     		strh	r3, [r7, #8]	@ movhi
 166:.\Generated_Source\PSoC5/WaveDAC8_1.c **** 	WaveDAC8_1_Wave1Setup(wavePtr1, sampleSize1);
 421              		.loc 1 166 0
 422 0010 7B89     		ldrh	r3, [r7, #10]
 423 0012 F868     		ldr	r0, [r7, #12]
 424 0014 1946     		mov	r1, r3
 425 0016 FFF7FEFF 		bl	WaveDAC8_1_Wave1Setup
 167:.\Generated_Source\PSoC5/WaveDAC8_1.c **** 	WaveDAC8_1_Wave2Setup(wavePtr2, sampleSize2);
 426              		.loc 1 167 0
 427 001a 3B89     		ldrh	r3, [r7, #8]
 428 001c 7868     		ldr	r0, [r7, #4]
 429 001e 1946     		mov	r1, r3
 430 0020 FFF7FEFF 		bl	WaveDAC8_1_Wave2Setup
 168:.\Generated_Source\PSoC5/WaveDAC8_1.c **** 	WaveDAC8_1_Start();
 431              		.loc 1 168 0
 432 0024 FFF7FEFF 		bl	WaveDAC8_1_Start
 169:.\Generated_Source\PSoC5/WaveDAC8_1.c **** }
 433              		.loc 1 169 0
 434 0028 07F11007 		add	r7, r7, #16
 435 002c BD46     		mov	sp, r7
 436 002e 80BD     		pop	{r7, pc}
 437              		.cfi_endproc
 438              	.LFE3:
 439              		.size	WaveDAC8_1_StartEx, .-WaveDAC8_1_StartEx
 440              		.section	.text.WaveDAC8_1_Stop,"ax",%progbits
 441              		.align	2
 442              		.global	WaveDAC8_1_Stop
 443              		.thumb
 444              		.thumb_func
 445              		.type	WaveDAC8_1_Stop, %function
 446              	WaveDAC8_1_Stop:
 447              	.LFB4:
 170:.\Generated_Source\PSoC5/WaveDAC8_1.c **** 
 171:.\Generated_Source\PSoC5/WaveDAC8_1.c **** 
 172:.\Generated_Source\PSoC5/WaveDAC8_1.c **** /*******************************************************************************
 173:.\Generated_Source\PSoC5/WaveDAC8_1.c **** * Function Name: WaveDAC8_1_Stop
 174:.\Generated_Source\PSoC5/WaveDAC8_1.c **** ********************************************************************************
 175:.\Generated_Source\PSoC5/WaveDAC8_1.c **** *
 176:.\Generated_Source\PSoC5/WaveDAC8_1.c **** * Summary:
 177:.\Generated_Source\PSoC5/WaveDAC8_1.c **** *  Stops the clock (if internal), disables the DMA channels
 178:.\Generated_Source\PSoC5/WaveDAC8_1.c **** *  and powers down the DAC.
 179:.\Generated_Source\PSoC5/WaveDAC8_1.c **** *
 180:.\Generated_Source\PSoC5/WaveDAC8_1.c **** * Parameters:  
ARM GAS  C:\Users\Mark\AppData\Local\Temp\ccKrsdHU.s 			page 12


 181:.\Generated_Source\PSoC5/WaveDAC8_1.c **** *  None  
 182:.\Generated_Source\PSoC5/WaveDAC8_1.c **** *
 183:.\Generated_Source\PSoC5/WaveDAC8_1.c **** * Return: 
 184:.\Generated_Source\PSoC5/WaveDAC8_1.c **** *  None
 185:.\Generated_Source\PSoC5/WaveDAC8_1.c **** *
 186:.\Generated_Source\PSoC5/WaveDAC8_1.c **** *******************************************************************************/
 187:.\Generated_Source\PSoC5/WaveDAC8_1.c **** void WaveDAC8_1_Stop(void) 
 188:.\Generated_Source\PSoC5/WaveDAC8_1.c **** {
 448              		.loc 1 188 0
 449              		.cfi_startproc
 450              		@ args = 0, pretend = 0, frame = 0
 451              		@ frame_needed = 1, uses_anonymous_args = 0
 452 0000 80B5     		push	{r7, lr}
 453              	.LCFI9:
 454              		.cfi_def_cfa_offset 8
 455              		.cfi_offset 7, -8
 456              		.cfi_offset 14, -4
 457 0002 00AF     		add	r7, sp, #0
 458              	.LCFI10:
 459              		.cfi_def_cfa_register 7
 189:.\Generated_Source\PSoC5/WaveDAC8_1.c **** 	/* Turn off internal clock, if one present */
 190:.\Generated_Source\PSoC5/WaveDAC8_1.c **** 	#if(WaveDAC8_1_CLOCK_SRC == WaveDAC8_1_CLOCK_INT)  	
 191:.\Generated_Source\PSoC5/WaveDAC8_1.c **** 	   WaveDAC8_1_DacClk_Stop();
 460              		.loc 1 191 0
 461 0004 FFF7FEFF 		bl	WaveDAC8_1_DacClk_Stop
 192:.\Generated_Source\PSoC5/WaveDAC8_1.c **** 	#endif /* WaveDAC8_1_CLOCK_SRC == WaveDAC8_1_CLOCK_INT */
 193:.\Generated_Source\PSoC5/WaveDAC8_1.c **** 	
 194:.\Generated_Source\PSoC5/WaveDAC8_1.c **** 	/* Disble DMA channels */
 195:.\Generated_Source\PSoC5/WaveDAC8_1.c **** 	(void)CyDmaChDisable(WaveDAC8_1_Wave1Chan);
 462              		.loc 1 195 0
 463 0008 40F20003 		movw	r3, #:lower16:WaveDAC8_1_Wave1Chan
 464 000c C0F20003 		movt	r3, #:upper16:WaveDAC8_1_Wave1Chan
 465 0010 1B78     		ldrb	r3, [r3, #0]	@ zero_extendqisi2
 466 0012 1846     		mov	r0, r3
 467 0014 FFF7FEFF 		bl	CyDmaChDisable
 196:.\Generated_Source\PSoC5/WaveDAC8_1.c **** 	(void)CyDmaChDisable(WaveDAC8_1_Wave2Chan);
 468              		.loc 1 196 0
 469 0018 40F20003 		movw	r3, #:lower16:WaveDAC8_1_Wave2Chan
 470 001c C0F20003 		movt	r3, #:upper16:WaveDAC8_1_Wave2Chan
 471 0020 1B78     		ldrb	r3, [r3, #0]	@ zero_extendqisi2
 472 0022 1846     		mov	r0, r3
 473 0024 FFF7FEFF 		bl	CyDmaChDisable
 197:.\Generated_Source\PSoC5/WaveDAC8_1.c **** 
 198:.\Generated_Source\PSoC5/WaveDAC8_1.c **** 	/* Disable power to DAC */
 199:.\Generated_Source\PSoC5/WaveDAC8_1.c **** 	WaveDAC8_1_VDAC8_Stop();
 474              		.loc 1 199 0
 475 0028 FFF7FEFF 		bl	WaveDAC8_1_VDAC8_Stop
 200:.\Generated_Source\PSoC5/WaveDAC8_1.c **** }
 476              		.loc 1 200 0
 477 002c 80BD     		pop	{r7, pc}
 478              		.cfi_endproc
 479              	.LFE4:
 480              		.size	WaveDAC8_1_Stop, .-WaveDAC8_1_Stop
 481 002e 00BF     		.section	.text.WaveDAC8_1_Wave1Setup,"ax",%progbits
 482              		.align	2
 483              		.global	WaveDAC8_1_Wave1Setup
 484              		.thumb
ARM GAS  C:\Users\Mark\AppData\Local\Temp\ccKrsdHU.s 			page 13


 485              		.thumb_func
 486              		.type	WaveDAC8_1_Wave1Setup, %function
 487              	WaveDAC8_1_Wave1Setup:
 488              	.LFB5:
 201:.\Generated_Source\PSoC5/WaveDAC8_1.c **** 
 202:.\Generated_Source\PSoC5/WaveDAC8_1.c **** 
 203:.\Generated_Source\PSoC5/WaveDAC8_1.c **** /*******************************************************************************
 204:.\Generated_Source\PSoC5/WaveDAC8_1.c **** * Function Name: WaveDAC8_1_Wave1Setup
 205:.\Generated_Source\PSoC5/WaveDAC8_1.c **** ********************************************************************************
 206:.\Generated_Source\PSoC5/WaveDAC8_1.c **** *
 207:.\Generated_Source\PSoC5/WaveDAC8_1.c **** * Summary:
 208:.\Generated_Source\PSoC5/WaveDAC8_1.c **** *  Sets pointer and size for waveform 1.                                    
 209:.\Generated_Source\PSoC5/WaveDAC8_1.c **** *
 210:.\Generated_Source\PSoC5/WaveDAC8_1.c **** * Parameters:  
 211:.\Generated_Source\PSoC5/WaveDAC8_1.c **** *  uint8 * WavePtr:     Pointer to the waveform array.
 212:.\Generated_Source\PSoC5/WaveDAC8_1.c **** *  uint16  SampleSize:  The amount of samples in the waveform.
 213:.\Generated_Source\PSoC5/WaveDAC8_1.c **** *
 214:.\Generated_Source\PSoC5/WaveDAC8_1.c **** * Return: 
 215:.\Generated_Source\PSoC5/WaveDAC8_1.c **** *  None 
 216:.\Generated_Source\PSoC5/WaveDAC8_1.c **** *
 217:.\Generated_Source\PSoC5/WaveDAC8_1.c **** *******************************************************************************/
 218:.\Generated_Source\PSoC5/WaveDAC8_1.c **** void WaveDAC8_1_Wave1Setup(const uint8 * wavePtr, uint16 sampleSize)
 219:.\Generated_Source\PSoC5/WaveDAC8_1.c **** 
 220:.\Generated_Source\PSoC5/WaveDAC8_1.c **** {
 489              		.loc 1 220 0
 490              		.cfi_startproc
 491              		@ args = 0, pretend = 0, frame = 8
 492              		@ frame_needed = 1, uses_anonymous_args = 0
 493 0000 80B5     		push	{r7, lr}
 494              	.LCFI11:
 495              		.cfi_def_cfa_offset 8
 496              		.cfi_offset 7, -8
 497              		.cfi_offset 14, -4
 498 0002 82B0     		sub	sp, sp, #8
 499              	.LCFI12:
 500              		.cfi_def_cfa_offset 16
 501 0004 00AF     		add	r7, sp, #0
 502              	.LCFI13:
 503              		.cfi_def_cfa_register 7
 504 0006 7860     		str	r0, [r7, #4]
 505 0008 0B46     		mov	r3, r1
 506 000a 7B80     		strh	r3, [r7, #2]	@ movhi
 221:.\Generated_Source\PSoC5/WaveDAC8_1.c **** 	#if (CY_PSOC3)
 222:.\Generated_Source\PSoC5/WaveDAC8_1.c **** 		uint16 memoryType; /* determining the source memory type */
 223:.\Generated_Source\PSoC5/WaveDAC8_1.c **** 		memoryType = (WaveDAC8_1_HI16FLASHPTR == HI16(wavePtr)) ? HI16(CYDEV_FLS_BASE) : HI16(CYDEV_SRAM_
 224:.\Generated_Source\PSoC5/WaveDAC8_1.c **** 		
 225:.\Generated_Source\PSoC5/WaveDAC8_1.c **** 		WaveDAC8_1_Wave1Chan = WaveDAC8_1_Wave1_DMA_DmaInitialize(
 226:.\Generated_Source\PSoC5/WaveDAC8_1.c **** 		WaveDAC8_1_Wave1_DMA_BYTES_PER_BURST, WaveDAC8_1_Wave1_DMA_REQUEST_PER_BURST,
 227:.\Generated_Source\PSoC5/WaveDAC8_1.c **** 		memoryType, HI16(CYDEV_PERIPH_BASE));
 228:.\Generated_Source\PSoC5/WaveDAC8_1.c **** 	#else /* PSoC 5 */
 229:.\Generated_Source\PSoC5/WaveDAC8_1.c **** 		WaveDAC8_1_Wave1Chan = WaveDAC8_1_Wave1_DMA_DmaInitialize(
 230:.\Generated_Source\PSoC5/WaveDAC8_1.c **** 		WaveDAC8_1_Wave1_DMA_BYTES_PER_BURST, WaveDAC8_1_Wave1_DMA_REQUEST_PER_BURST,
 231:.\Generated_Source\PSoC5/WaveDAC8_1.c **** 		HI16(wavePtr), HI16(WaveDAC8_1_DAC8__D));
 507              		.loc 1 231 0
 508 000c 7B68     		ldr	r3, [r7, #4]
 509 000e 4FEA1343 		lsr	r3, r3, #16
 229:.\Generated_Source\PSoC5/WaveDAC8_1.c **** 		WaveDAC8_1_Wave1Chan = WaveDAC8_1_Wave1_DMA_DmaInitialize(
ARM GAS  C:\Users\Mark\AppData\Local\Temp\ccKrsdHU.s 			page 14


 510              		.loc 1 229 0
 511 0012 9BB2     		uxth	r3, r3
 512 0014 4FF00100 		mov	r0, #1
 513 0018 4FF00101 		mov	r1, #1
 514 001c 1A46     		mov	r2, r3
 515 001e 4FF48043 		mov	r3, #16384
 516 0022 FFF7FEFF 		bl	WaveDAC8_1_Wave1_DMA_DmaInitialize
 517 0026 0346     		mov	r3, r0
 518 0028 1A46     		mov	r2, r3
 519 002a 40F20003 		movw	r3, #:lower16:WaveDAC8_1_Wave1Chan
 520 002e C0F20003 		movt	r3, #:upper16:WaveDAC8_1_Wave1Chan
 521 0032 1A70     		strb	r2, [r3, #0]
 232:.\Generated_Source\PSoC5/WaveDAC8_1.c **** 	#endif /* CY_PSOC3 */
 233:.\Generated_Source\PSoC5/WaveDAC8_1.c **** 	
 234:.\Generated_Source\PSoC5/WaveDAC8_1.c **** 	/*
 235:.\Generated_Source\PSoC5/WaveDAC8_1.c **** 	* TD is looping on itself. 
 236:.\Generated_Source\PSoC5/WaveDAC8_1.c ****     * Increment the source address, but not the destination address. 
 237:.\Generated_Source\PSoC5/WaveDAC8_1.c **** 	*/
 238:.\Generated_Source\PSoC5/WaveDAC8_1.c **** 	(void)CyDmaTdSetConfiguration(WaveDAC8_1_Wave1TD, sampleSize, WaveDAC8_1_Wave1TD, 
 522              		.loc 1 238 0
 523 0034 40F20003 		movw	r3, #:lower16:WaveDAC8_1_Wave1TD
 524 0038 C0F20003 		movt	r3, #:upper16:WaveDAC8_1_Wave1TD
 525 003c 1978     		ldrb	r1, [r3, #0]	@ zero_extendqisi2
 526 003e 40F20003 		movw	r3, #:lower16:WaveDAC8_1_Wave1TD
 527 0042 C0F20003 		movt	r3, #:upper16:WaveDAC8_1_Wave1TD
 528 0046 1B78     		ldrb	r3, [r3, #0]	@ zero_extendqisi2
 529 0048 7A88     		ldrh	r2, [r7, #2]
 530 004a 0846     		mov	r0, r1
 531 004c 1146     		mov	r1, r2
 532 004e 1A46     		mov	r2, r3
 533 0050 4FF00103 		mov	r3, #1
 534 0054 FFF7FEFF 		bl	CyDmaTdSetConfiguration
 239:.\Generated_Source\PSoC5/WaveDAC8_1.c ****                                     (uint8)CY_DMA_TD_INC_SRC_ADR | (uint8)WaveDAC8_1_Wave1_DMA__TD_
 240:.\Generated_Source\PSoC5/WaveDAC8_1.c **** 	
 241:.\Generated_Source\PSoC5/WaveDAC8_1.c **** 	/* Set the TD source and destination address */
 242:.\Generated_Source\PSoC5/WaveDAC8_1.c **** 	(void)CyDmaTdSetAddress(WaveDAC8_1_Wave1TD, LO16((uint32)wavePtr), LO16(WaveDAC8_1_DAC8__D));
 535              		.loc 1 242 0
 536 0058 40F20003 		movw	r3, #:lower16:WaveDAC8_1_Wave1TD
 537 005c C0F20003 		movt	r3, #:upper16:WaveDAC8_1_Wave1TD
 538 0060 1A78     		ldrb	r2, [r3, #0]	@ zero_extendqisi2
 539 0062 7B68     		ldr	r3, [r7, #4]
 540 0064 9BB2     		uxth	r3, r3
 541 0066 1046     		mov	r0, r2
 542 0068 1946     		mov	r1, r3
 543 006a 45F68132 		movw	r2, #23425
 544 006e FFF7FEFF 		bl	CyDmaTdSetAddress
 243:.\Generated_Source\PSoC5/WaveDAC8_1.c **** 	
 244:.\Generated_Source\PSoC5/WaveDAC8_1.c **** 	/* Associate the TD with the channel */
 245:.\Generated_Source\PSoC5/WaveDAC8_1.c **** 	(void)CyDmaChSetInitialTd(WaveDAC8_1_Wave1Chan, WaveDAC8_1_Wave1TD);
 545              		.loc 1 245 0
 546 0072 40F20003 		movw	r3, #:lower16:WaveDAC8_1_Wave1Chan
 547 0076 C0F20003 		movt	r3, #:upper16:WaveDAC8_1_Wave1Chan
 548 007a 1A78     		ldrb	r2, [r3, #0]	@ zero_extendqisi2
 549 007c 40F20003 		movw	r3, #:lower16:WaveDAC8_1_Wave1TD
 550 0080 C0F20003 		movt	r3, #:upper16:WaveDAC8_1_Wave1TD
 551 0084 1B78     		ldrb	r3, [r3, #0]	@ zero_extendqisi2
 552 0086 1046     		mov	r0, r2
ARM GAS  C:\Users\Mark\AppData\Local\Temp\ccKrsdHU.s 			page 15


 553 0088 1946     		mov	r1, r3
 554 008a FFF7FEFF 		bl	CyDmaChSetInitialTd
 246:.\Generated_Source\PSoC5/WaveDAC8_1.c **** }
 555              		.loc 1 246 0
 556 008e 07F10807 		add	r7, r7, #8
 557 0092 BD46     		mov	sp, r7
 558 0094 80BD     		pop	{r7, pc}
 559              		.cfi_endproc
 560              	.LFE5:
 561              		.size	WaveDAC8_1_Wave1Setup, .-WaveDAC8_1_Wave1Setup
 562 0096 00BF     		.section	.text.WaveDAC8_1_Wave2Setup,"ax",%progbits
 563              		.align	2
 564              		.global	WaveDAC8_1_Wave2Setup
 565              		.thumb
 566              		.thumb_func
 567              		.type	WaveDAC8_1_Wave2Setup, %function
 568              	WaveDAC8_1_Wave2Setup:
 569              	.LFB6:
 247:.\Generated_Source\PSoC5/WaveDAC8_1.c **** 
 248:.\Generated_Source\PSoC5/WaveDAC8_1.c **** 
 249:.\Generated_Source\PSoC5/WaveDAC8_1.c **** /*******************************************************************************
 250:.\Generated_Source\PSoC5/WaveDAC8_1.c **** * Function Name: WaveDAC8_1_Wave2Setup
 251:.\Generated_Source\PSoC5/WaveDAC8_1.c **** ********************************************************************************
 252:.\Generated_Source\PSoC5/WaveDAC8_1.c **** *
 253:.\Generated_Source\PSoC5/WaveDAC8_1.c **** * Summary:
 254:.\Generated_Source\PSoC5/WaveDAC8_1.c **** *  Sets pointer and size for waveform 2.                                    
 255:.\Generated_Source\PSoC5/WaveDAC8_1.c **** *
 256:.\Generated_Source\PSoC5/WaveDAC8_1.c **** * Parameters:  
 257:.\Generated_Source\PSoC5/WaveDAC8_1.c **** *  uint8 * WavePtr:     Pointer to the waveform array.
 258:.\Generated_Source\PSoC5/WaveDAC8_1.c **** *  uint16  SampleSize:  The amount of samples in the waveform.
 259:.\Generated_Source\PSoC5/WaveDAC8_1.c **** *
 260:.\Generated_Source\PSoC5/WaveDAC8_1.c **** * Return: 
 261:.\Generated_Source\PSoC5/WaveDAC8_1.c **** *  None
 262:.\Generated_Source\PSoC5/WaveDAC8_1.c **** *
 263:.\Generated_Source\PSoC5/WaveDAC8_1.c **** *******************************************************************************/
 264:.\Generated_Source\PSoC5/WaveDAC8_1.c **** void WaveDAC8_1_Wave2Setup(const uint8 * wavePtr, uint16 sampleSize)
 265:.\Generated_Source\PSoC5/WaveDAC8_1.c ****  
 266:.\Generated_Source\PSoC5/WaveDAC8_1.c **** {
 570              		.loc 1 266 0
 571              		.cfi_startproc
 572              		@ args = 0, pretend = 0, frame = 8
 573              		@ frame_needed = 1, uses_anonymous_args = 0
 574 0000 80B5     		push	{r7, lr}
 575              	.LCFI14:
 576              		.cfi_def_cfa_offset 8
 577              		.cfi_offset 7, -8
 578              		.cfi_offset 14, -4
 579 0002 82B0     		sub	sp, sp, #8
 580              	.LCFI15:
 581              		.cfi_def_cfa_offset 16
 582 0004 00AF     		add	r7, sp, #0
 583              	.LCFI16:
 584              		.cfi_def_cfa_register 7
 585 0006 7860     		str	r0, [r7, #4]
 586 0008 0B46     		mov	r3, r1
 587 000a 7B80     		strh	r3, [r7, #2]	@ movhi
 267:.\Generated_Source\PSoC5/WaveDAC8_1.c **** 	#if (CY_PSOC3)
ARM GAS  C:\Users\Mark\AppData\Local\Temp\ccKrsdHU.s 			page 16


 268:.\Generated_Source\PSoC5/WaveDAC8_1.c **** 		uint16 memoryType; /* determining the source memory type */
 269:.\Generated_Source\PSoC5/WaveDAC8_1.c **** 		memoryType = (WaveDAC8_1_HI16FLASHPTR == HI16(wavePtr)) ? HI16(CYDEV_FLS_BASE) : HI16(CYDEV_SRAM_
 270:.\Generated_Source\PSoC5/WaveDAC8_1.c **** 			
 271:.\Generated_Source\PSoC5/WaveDAC8_1.c **** 		WaveDAC8_1_Wave2Chan = WaveDAC8_1_Wave2_DMA_DmaInitialize(
 272:.\Generated_Source\PSoC5/WaveDAC8_1.c **** 		WaveDAC8_1_Wave2_DMA_BYTES_PER_BURST, WaveDAC8_1_Wave2_DMA_REQUEST_PER_BURST,
 273:.\Generated_Source\PSoC5/WaveDAC8_1.c **** 		memoryType, HI16(CYDEV_PERIPH_BASE));
 274:.\Generated_Source\PSoC5/WaveDAC8_1.c **** 	#else /* PSoC 5 */
 275:.\Generated_Source\PSoC5/WaveDAC8_1.c **** 		WaveDAC8_1_Wave2Chan = WaveDAC8_1_Wave2_DMA_DmaInitialize(
 276:.\Generated_Source\PSoC5/WaveDAC8_1.c **** 		WaveDAC8_1_Wave2_DMA_BYTES_PER_BURST, WaveDAC8_1_Wave2_DMA_REQUEST_PER_BURST,
 277:.\Generated_Source\PSoC5/WaveDAC8_1.c **** 		HI16(wavePtr), HI16(WaveDAC8_1_DAC8__D));
 588              		.loc 1 277 0
 589 000c 7B68     		ldr	r3, [r7, #4]
 590 000e 4FEA1343 		lsr	r3, r3, #16
 275:.\Generated_Source\PSoC5/WaveDAC8_1.c **** 		WaveDAC8_1_Wave2Chan = WaveDAC8_1_Wave2_DMA_DmaInitialize(
 591              		.loc 1 275 0
 592 0012 9BB2     		uxth	r3, r3
 593 0014 4FF00100 		mov	r0, #1
 594 0018 4FF00101 		mov	r1, #1
 595 001c 1A46     		mov	r2, r3
 596 001e 4FF48043 		mov	r3, #16384
 597 0022 FFF7FEFF 		bl	WaveDAC8_1_Wave2_DMA_DmaInitialize
 598 0026 0346     		mov	r3, r0
 599 0028 1A46     		mov	r2, r3
 600 002a 40F20003 		movw	r3, #:lower16:WaveDAC8_1_Wave2Chan
 601 002e C0F20003 		movt	r3, #:upper16:WaveDAC8_1_Wave2Chan
 602 0032 1A70     		strb	r2, [r3, #0]
 278:.\Generated_Source\PSoC5/WaveDAC8_1.c **** 	#endif /* CY_PSOC3 */
 279:.\Generated_Source\PSoC5/WaveDAC8_1.c **** 	
 280:.\Generated_Source\PSoC5/WaveDAC8_1.c **** 	/*
 281:.\Generated_Source\PSoC5/WaveDAC8_1.c **** 	* TD is looping on itself. 
 282:.\Generated_Source\PSoC5/WaveDAC8_1.c **** 	* Increment the source address, but not the destination address. 
 283:.\Generated_Source\PSoC5/WaveDAC8_1.c **** 	*/
 284:.\Generated_Source\PSoC5/WaveDAC8_1.c **** 	(void)CyDmaTdSetConfiguration(WaveDAC8_1_Wave2TD, sampleSize, WaveDAC8_1_Wave2TD, 
 603              		.loc 1 284 0
 604 0034 40F20003 		movw	r3, #:lower16:WaveDAC8_1_Wave2TD
 605 0038 C0F20003 		movt	r3, #:upper16:WaveDAC8_1_Wave2TD
 606 003c 1978     		ldrb	r1, [r3, #0]	@ zero_extendqisi2
 607 003e 40F20003 		movw	r3, #:lower16:WaveDAC8_1_Wave2TD
 608 0042 C0F20003 		movt	r3, #:upper16:WaveDAC8_1_Wave2TD
 609 0046 1B78     		ldrb	r3, [r3, #0]	@ zero_extendqisi2
 610 0048 7A88     		ldrh	r2, [r7, #2]
 611 004a 0846     		mov	r0, r1
 612 004c 1146     		mov	r1, r2
 613 004e 1A46     		mov	r2, r3
 614 0050 4FF00103 		mov	r3, #1
 615 0054 FFF7FEFF 		bl	CyDmaTdSetConfiguration
 285:.\Generated_Source\PSoC5/WaveDAC8_1.c ****                                     (uint8)CY_DMA_TD_INC_SRC_ADR | (uint8)WaveDAC8_1_Wave2_DMA__TD_
 286:.\Generated_Source\PSoC5/WaveDAC8_1.c **** 	
 287:.\Generated_Source\PSoC5/WaveDAC8_1.c **** 	/* Set the TD source and destination address */
 288:.\Generated_Source\PSoC5/WaveDAC8_1.c **** 	(void)CyDmaTdSetAddress(WaveDAC8_1_Wave2TD, LO16((uint32)wavePtr), LO16(WaveDAC8_1_DAC8__D));
 616              		.loc 1 288 0
 617 0058 40F20003 		movw	r3, #:lower16:WaveDAC8_1_Wave2TD
 618 005c C0F20003 		movt	r3, #:upper16:WaveDAC8_1_Wave2TD
 619 0060 1A78     		ldrb	r2, [r3, #0]	@ zero_extendqisi2
 620 0062 7B68     		ldr	r3, [r7, #4]
 621 0064 9BB2     		uxth	r3, r3
 622 0066 1046     		mov	r0, r2
ARM GAS  C:\Users\Mark\AppData\Local\Temp\ccKrsdHU.s 			page 17


 623 0068 1946     		mov	r1, r3
 624 006a 45F68132 		movw	r2, #23425
 625 006e FFF7FEFF 		bl	CyDmaTdSetAddress
 289:.\Generated_Source\PSoC5/WaveDAC8_1.c **** 	
 290:.\Generated_Source\PSoC5/WaveDAC8_1.c **** 	/* Associate the TD with the channel */
 291:.\Generated_Source\PSoC5/WaveDAC8_1.c **** 	(void)CyDmaChSetInitialTd(WaveDAC8_1_Wave2Chan, WaveDAC8_1_Wave2TD);
 626              		.loc 1 291 0
 627 0072 40F20003 		movw	r3, #:lower16:WaveDAC8_1_Wave2Chan
 628 0076 C0F20003 		movt	r3, #:upper16:WaveDAC8_1_Wave2Chan
 629 007a 1A78     		ldrb	r2, [r3, #0]	@ zero_extendqisi2
 630 007c 40F20003 		movw	r3, #:lower16:WaveDAC8_1_Wave2TD
 631 0080 C0F20003 		movt	r3, #:upper16:WaveDAC8_1_Wave2TD
 632 0084 1B78     		ldrb	r3, [r3, #0]	@ zero_extendqisi2
 633 0086 1046     		mov	r0, r2
 634 0088 1946     		mov	r1, r3
 635 008a FFF7FEFF 		bl	CyDmaChSetInitialTd
 292:.\Generated_Source\PSoC5/WaveDAC8_1.c **** }
 636              		.loc 1 292 0
 637 008e 07F10807 		add	r7, r7, #8
 638 0092 BD46     		mov	sp, r7
 639 0094 80BD     		pop	{r7, pc}
 640              		.cfi_endproc
 641              	.LFE6:
 642              		.size	WaveDAC8_1_Wave2Setup, .-WaveDAC8_1_Wave2Setup
 643 0096 00BF     		.text
 644              	.Letext0:
 645              		.file 2 ".\\Generated_Source\\PSoC5\\cytypes.h"